Archive member included to satisfy reference by file (symbol)

/ICESX/workSpaceC/SmartCarPark/product/code/frontend/dev/SmartCarParkFront-Lib-Mine/ATMEGA_LIB/libSmartCarParkFront-Lib-Mine.a(SdCard.o)
                              ./src/SmartCarPark.o (_ZN6SdCard11checkSdCardEv)
/ICESX/workSpaceC/SmartCarPark/product/code/frontend/dev/SmartCarParkFront-Lib/ATMEGA_LIB/libSmartCarParkFront-Lib.a(HardwareSerial.o)
                              ./src/SmartCarPark.o (_ZN14HardwareSerial5beginEmh)
/ICESX/workSpaceC/SmartCarPark/product/code/frontend/dev/SmartCarParkFront-Lib/ATMEGA_LIB/libSmartCarParkFront-Lib.a(HardwareSerial0.o)
                              ./src/SmartCarPark.o (Serial)
/ICESX/workSpaceC/SmartCarPark/product/code/frontend/dev/SmartCarParkFront-Lib/ATMEGA_LIB/libSmartCarParkFront-Lib.a(IPAddress.o)
                              ./src/SmartCarPark.o (_ZN9IPAddressC1Ehhhh)
/ICESX/workSpaceC/SmartCarPark/product/code/frontend/dev/SmartCarParkFront-Lib/ATMEGA_LIB/libSmartCarParkFront-Lib.a(Print.o)
                              /ICESX/workSpaceC/SmartCarPark/product/code/frontend/dev/SmartCarParkFront-Lib/ATMEGA_LIB/libSmartCarParkFront-Lib.a(HardwareSerial.o) (_ZN5Print5writeEPKhj)
/ICESX/workSpaceC/SmartCarPark/product/code/frontend/dev/SmartCarParkFront-Lib/ATMEGA_LIB/libSmartCarParkFront-Lib.a(abi.o)
                              /ICESX/workSpaceC/SmartCarPark/product/code/frontend/dev/SmartCarParkFront-Lib/ATMEGA_LIB/libSmartCarParkFront-Lib.a(IPAddress.o) (__cxa_pure_virtual)
/ICESX/workSpaceC/SmartCarPark/product/code/frontend/dev/SmartCarParkFront-Lib/ATMEGA_LIB/libSmartCarParkFront-Lib.a(main.o)
                              /TOOLS/software/arduino-1.6.5/hardware/tools/avr/bin/../lib/gcc/avr/4.8.1/../../../../avr/lib/avr6/crtm2560.o (main)
/ICESX/workSpaceC/SmartCarPark/product/code/frontend/dev/SmartCarParkFront-Lib/ATMEGA_LIB/libSmartCarParkFront-Lib.a(wiring.o)
                              ./src/SmartCarPark.o (delay)
/ICESX/workSpaceC/SmartCarPark/product/code/frontend/dev/SmartCarParkFront-Lib/ATMEGA_LIB/libSmartCarParkFront-Lib.a(wiring_digital.o)
                              ./src/SmartCarPark.o (pinMode)
/ICESX/workSpaceC/SmartCarPark/product/code/frontend/dev/SmartCarParkFront-Lib/ATMEGA_LIB/libSmartCarParkFront-Lib.a(SoftwareSerial.o)
                              ./src/SmartCarPark.o (_ZN14SoftwareSerialD1Ev)
/ICESX/workSpaceC/SmartCarPark/product/code/frontend/dev/SmartCarParkFront-Lib/ATMEGA_LIB/libSmartCarParkFront-Lib.a(Sd2Card.o)
                              /ICESX/workSpaceC/SmartCarPark/product/code/frontend/dev/SmartCarParkFront-Lib-Mine/ATMEGA_LIB/libSmartCarParkFront-Lib-Mine.a(SdCard.o) (_ZN7Sd2Card4initEhh)
/ICESX/workSpaceC/SmartCarPark/product/code/frontend/dev/SmartCarParkFront-Lib/ATMEGA_LIB/libSmartCarParkFront-Lib.a(SdFile.o)
                              /ICESX/workSpaceC/SmartCarPark/product/code/frontend/dev/SmartCarParkFront-Lib-Mine/ATMEGA_LIB/libSmartCarParkFront-Lib-Mine.a(SdCard.o) (_ZN6SdFile8openRootEP8SdVolume)
/ICESX/workSpaceC/SmartCarPark/product/code/frontend/dev/SmartCarParkFront-Lib/ATMEGA_LIB/libSmartCarParkFront-Lib.a(SdVolume.o)
                              /ICESX/workSpaceC/SmartCarPark/product/code/frontend/dev/SmartCarParkFront-Lib/ATMEGA_LIB/libSmartCarParkFront-Lib.a(SdFile.o) (_ZN8SdVolume10cacheFlushEv)
/ICESX/workSpaceC/SmartCarPark/product/code/frontend/dev/SmartCarParkFront-Lib/ATMEGA_LIB/libSmartCarParkFront-Lib.a(File.o)
                              /ICESX/workSpaceC/SmartCarPark/product/code/frontend/dev/SmartCarParkFront-Lib-Mine/ATMEGA_LIB/libSmartCarParkFront-Lib-Mine.a(SdCard.o) (_ZN4File4readEv)
/ICESX/workSpaceC/SmartCarPark/product/code/frontend/dev/SmartCarParkFront-Lib/ATMEGA_LIB/libSmartCarParkFront-Lib.a(SD.o)
                              /ICESX/workSpaceC/SmartCarPark/product/code/frontend/dev/SmartCarParkFront-Lib-Mine/ATMEGA_LIB/libSmartCarParkFront-Lib-Mine.a(SdCard.o) (_ZN7SDClass5beginEh)
/ICESX/workSpaceC/SmartCarPark/product/code/frontend/dev/SmartCarParkFront-Lib/ATMEGA_LIB/libSmartCarParkFront-Lib.a(hooks.o)
                              /ICESX/workSpaceC/SmartCarPark/product/code/frontend/dev/SmartCarParkFront-Lib/ATMEGA_LIB/libSmartCarParkFront-Lib.a(wiring.o) (yield)
/ICESX/workSpaceC/SmartCarPark/product/code/frontend/dev/SmartCarParkFront-Lib/ATMEGA_LIB/libSmartCarParkFront-Lib.a(SPI.o)
                              /ICESX/workSpaceC/SmartCarPark/product/code/frontend/dev/SmartCarParkFront-Lib/ATMEGA_LIB/libSmartCarParkFront-Lib.a(Sd2Card.o) (_ZN8SPIClass5beginEv)
/TOOLS/software/arduino-1.6.5/hardware/tools/avr/bin/../lib/gcc/avr/4.8.1/avr6/libgcc.a(_udivmodqi4.o)
                              /ICESX/workSpaceC/SmartCarPark/product/code/frontend/dev/SmartCarParkFront-Lib/ATMEGA_LIB/libSmartCarParkFront-Lib.a(SdFile.o) (__udivmodqi4)
/TOOLS/software/arduino-1.6.5/hardware/tools/avr/bin/../lib/gcc/avr/4.8.1/avr6/libgcc.a(_divmodhi4.o)
                              /ICESX/workSpaceC/SmartCarPark/product/code/frontend/dev/SmartCarParkFront-Lib/ATMEGA_LIB/libSmartCarParkFront-Lib.a(SoftwareSerial.o) (__divmodhi4)
/TOOLS/software/arduino-1.6.5/hardware/tools/avr/bin/../lib/gcc/avr/4.8.1/avr6/libgcc.a(_udivmodsi4.o)
                              /ICESX/workSpaceC/SmartCarPark/product/code/frontend/dev/SmartCarParkFront-Lib/ATMEGA_LIB/libSmartCarParkFront-Lib.a(HardwareSerial.o) (__udivmodsi4)
/TOOLS/software/arduino-1.6.5/hardware/tools/avr/bin/../lib/gcc/avr/4.8.1/avr6/libgcc.a(_divmodsi4.o)
                              /ICESX/workSpaceC/SmartCarPark/product/code/frontend/dev/SmartCarParkFront-Lib/ATMEGA_LIB/libSmartCarParkFront-Lib.a(SoftwareSerial.o) (__divmodsi4)
/TOOLS/software/arduino-1.6.5/hardware/tools/avr/bin/../lib/gcc/avr/4.8.1/avr6/libgcc.a(_negsi2.o)
                              /TOOLS/software/arduino-1.6.5/hardware/tools/avr/bin/../lib/gcc/avr/4.8.1/avr6/libgcc.a(_divmodsi4.o) (__negsi2)
/TOOLS/software/arduino-1.6.5/hardware/tools/avr/bin/../lib/gcc/avr/4.8.1/avr6/libgcc.a(_exit.o)
                              /TOOLS/software/arduino-1.6.5/hardware/tools/avr/bin/../lib/gcc/avr/4.8.1/../../../../avr/lib/avr6/crtm2560.o (exit)
/TOOLS/software/arduino-1.6.5/hardware/tools/avr/bin/../lib/gcc/avr/4.8.1/avr6/libgcc.a(_tablejump.o)
                              /ICESX/workSpaceC/SmartCarPark/product/code/frontend/dev/SmartCarParkFront-Lib/ATMEGA_LIB/libSmartCarParkFront-Lib.a(wiring_digital.o) (__tablejump2__)
/TOOLS/software/arduino-1.6.5/hardware/tools/avr/bin/../lib/gcc/avr/4.8.1/avr6/libgcc.a(_copy_data.o)
                              ./src/SmartCarPark.o (__do_copy_data)
/TOOLS/software/arduino-1.6.5/hardware/tools/avr/bin/../lib/gcc/avr/4.8.1/avr6/libgcc.a(_clear_bss.o)
                              ./src/SmartCarPark.o (__do_clear_bss)
/TOOLS/software/arduino-1.6.5/hardware/tools/avr/bin/../lib/gcc/avr/4.8.1/avr6/libgcc.a(_ctors.o)
                              ./src/SmartCarPark.o (__do_global_ctors)
/TOOLS/software/arduino-1.6.5/hardware/tools/avr/bin/../lib/gcc/avr/4.8.1/avr6/libgcc.a(_dtors.o)
                              ./src/SmartCarPark.o (__do_global_dtors)
/TOOLS/software/arduino-1.6.5/hardware/tools/avr/bin/../lib/gcc/avr/4.8.1/avr6/libgcc.a(_muluhisi3.o)
                              /ICESX/workSpaceC/SmartCarPark/product/code/frontend/dev/SmartCarParkFront-Lib-Mine/ATMEGA_LIB/libSmartCarParkFront-Lib-Mine.a(SdCard.o) (__muluhisi3)
/TOOLS/software/arduino-1.6.5/hardware/tools/avr/bin/../lib/gcc/avr/4.8.1/avr6/libgcc.a(_tablejump_elpm.o)
                              /TOOLS/software/arduino-1.6.5/hardware/tools/avr/bin/../lib/gcc/avr/4.8.1/avr6/libgcc.a(_ctors.o) (__tablejump_elpm__)
/TOOLS/software/arduino-1.6.5/hardware/tools/avr/bin/../lib/gcc/avr/4.8.1/avr6/libgcc.a(_udivmodhi4.o)
                              /TOOLS/software/arduino-1.6.5/hardware/tools/avr/bin/../lib/gcc/avr/4.8.1/avr6/libgcc.a(_divmodhi4.o) (__udivmodhi4)
/TOOLS/software/arduino-1.6.5/hardware/tools/avr/bin/../lib/gcc/avr/4.8.1/avr6/libgcc.a(_umulhisi3.o)
                              /TOOLS/software/arduino-1.6.5/hardware/tools/avr/bin/../lib/gcc/avr/4.8.1/avr6/libgcc.a(_muluhisi3.o) (__umulhisi3)
/TOOLS/software/arduino-1.6.5/hardware/tools/avr/bin/../lib/gcc/avr/4.8.1/../../../../avr/lib/avr6/libm.a(addsf3.o)
                              /ICESX/workSpaceC/SmartCarPark/product/code/frontend/dev/SmartCarParkFront-Lib/ATMEGA_LIB/libSmartCarParkFront-Lib.a(Print.o) (__subsf3)
/TOOLS/software/arduino-1.6.5/hardware/tools/avr/bin/../lib/gcc/avr/4.8.1/../../../../avr/lib/avr6/libm.a(addsf3x.o)
                              /TOOLS/software/arduino-1.6.5/hardware/tools/avr/bin/../lib/gcc/avr/4.8.1/../../../../avr/lib/avr6/libm.a(addsf3.o) (__addsf3x)
/TOOLS/software/arduino-1.6.5/hardware/tools/avr/bin/../lib/gcc/avr/4.8.1/../../../../avr/lib/avr6/libm.a(cmpsf2.o)
                              /ICESX/workSpaceC/SmartCarPark/product/code/frontend/dev/SmartCarParkFront-Lib/ATMEGA_LIB/libSmartCarParkFront-Lib.a(Print.o) (__ltsf2)
/TOOLS/software/arduino-1.6.5/hardware/tools/avr/bin/../lib/gcc/avr/4.8.1/../../../../avr/lib/avr6/libm.a(divsf3.o)
                              /ICESX/workSpaceC/SmartCarPark/product/code/frontend/dev/SmartCarParkFront-Lib/ATMEGA_LIB/libSmartCarParkFront-Lib.a(Print.o) (__divsf3)
/TOOLS/software/arduino-1.6.5/hardware/tools/avr/bin/../lib/gcc/avr/4.8.1/../../../../avr/lib/avr6/libm.a(divsf3x.o)
                              /TOOLS/software/arduino-1.6.5/hardware/tools/avr/bin/../lib/gcc/avr/4.8.1/../../../../avr/lib/avr6/libm.a(divsf3.o) (__divsf3x)
/TOOLS/software/arduino-1.6.5/hardware/tools/avr/bin/../lib/gcc/avr/4.8.1/../../../../avr/lib/avr6/libm.a(fixsfsi.o)
                              /ICESX/workSpaceC/SmartCarPark/product/code/frontend/dev/SmartCarParkFront-Lib/ATMEGA_LIB/libSmartCarParkFront-Lib.a(Print.o) (__fixsfsi)
/TOOLS/software/arduino-1.6.5/hardware/tools/avr/bin/../lib/gcc/avr/4.8.1/../../../../avr/lib/avr6/libm.a(fixunssfsi.o)
                              /ICESX/workSpaceC/SmartCarPark/product/code/frontend/dev/SmartCarParkFront-Lib/ATMEGA_LIB/libSmartCarParkFront-Lib.a(Print.o) (__fixunssfsi)
/TOOLS/software/arduino-1.6.5/hardware/tools/avr/bin/../lib/gcc/avr/4.8.1/../../../../avr/lib/avr6/libm.a(floatsisf.o)
                              /ICESX/workSpaceC/SmartCarPark/product/code/frontend/dev/SmartCarParkFront-Lib/ATMEGA_LIB/libSmartCarParkFront-Lib.a(Print.o) (__floatunsisf)
/TOOLS/software/arduino-1.6.5/hardware/tools/avr/bin/../lib/gcc/avr/4.8.1/../../../../avr/lib/avr6/libm.a(fp_cmp.o)
                              /TOOLS/software/arduino-1.6.5/hardware/tools/avr/bin/../lib/gcc/avr/4.8.1/../../../../avr/lib/avr6/libm.a(cmpsf2.o) (__fp_cmp)
/TOOLS/software/arduino-1.6.5/hardware/tools/avr/bin/../lib/gcc/avr/4.8.1/../../../../avr/lib/avr6/libm.a(fp_inf.o)
                              /TOOLS/software/arduino-1.6.5/hardware/tools/avr/bin/../lib/gcc/avr/4.8.1/../../../../avr/lib/avr6/libm.a(addsf3x.o) (__fp_inf)
/TOOLS/software/arduino-1.6.5/hardware/tools/avr/bin/../lib/gcc/avr/4.8.1/../../../../avr/lib/avr6/libm.a(fp_nan.o)
                              /TOOLS/software/arduino-1.6.5/hardware/tools/avr/bin/../lib/gcc/avr/4.8.1/../../../../avr/lib/avr6/libm.a(addsf3x.o) (__fp_nan)
/TOOLS/software/arduino-1.6.5/hardware/tools/avr/bin/../lib/gcc/avr/4.8.1/../../../../avr/lib/avr6/libm.a(fp_pscA.o)
                              /TOOLS/software/arduino-1.6.5/hardware/tools/avr/bin/../lib/gcc/avr/4.8.1/../../../../avr/lib/avr6/libm.a(addsf3x.o) (__fp_pscA)
/TOOLS/software/arduino-1.6.5/hardware/tools/avr/bin/../lib/gcc/avr/4.8.1/../../../../avr/lib/avr6/libm.a(fp_pscB.o)
                              /TOOLS/software/arduino-1.6.5/hardware/tools/avr/bin/../lib/gcc/avr/4.8.1/../../../../avr/lib/avr6/libm.a(addsf3x.o) (__fp_pscB)
/TOOLS/software/arduino-1.6.5/hardware/tools/avr/bin/../lib/gcc/avr/4.8.1/../../../../avr/lib/avr6/libm.a(fp_round.o)
                              /TOOLS/software/arduino-1.6.5/hardware/tools/avr/bin/../lib/gcc/avr/4.8.1/../../../../avr/lib/avr6/libm.a(addsf3.o) (__fp_round)
/TOOLS/software/arduino-1.6.5/hardware/tools/avr/bin/../lib/gcc/avr/4.8.1/../../../../avr/lib/avr6/libm.a(fp_split3.o)
                              /TOOLS/software/arduino-1.6.5/hardware/tools/avr/bin/../lib/gcc/avr/4.8.1/../../../../avr/lib/avr6/libm.a(addsf3x.o) (__fp_split3)
/TOOLS/software/arduino-1.6.5/hardware/tools/avr/bin/../lib/gcc/avr/4.8.1/../../../../avr/lib/avr6/libm.a(fp_zero.o)
                              /TOOLS/software/arduino-1.6.5/hardware/tools/avr/bin/../lib/gcc/avr/4.8.1/../../../../avr/lib/avr6/libm.a(addsf3x.o) (__fp_zero)
/TOOLS/software/arduino-1.6.5/hardware/tools/avr/bin/../lib/gcc/avr/4.8.1/../../../../avr/lib/avr6/libm.a(gesf2.o)
                              /ICESX/workSpaceC/SmartCarPark/product/code/frontend/dev/SmartCarParkFront-Lib/ATMEGA_LIB/libSmartCarParkFront-Lib.a(Print.o) (__gtsf2)
/TOOLS/software/arduino-1.6.5/hardware/tools/avr/bin/../lib/gcc/avr/4.8.1/../../../../avr/lib/avr6/libm.a(mulsf3.o)
                              /ICESX/workSpaceC/SmartCarPark/product/code/frontend/dev/SmartCarParkFront-Lib/ATMEGA_LIB/libSmartCarParkFront-Lib.a(Print.o) (__mulsf3)
/TOOLS/software/arduino-1.6.5/hardware/tools/avr/bin/../lib/gcc/avr/4.8.1/../../../../avr/lib/avr6/libm.a(mulsf3x.o)
                              /TOOLS/software/arduino-1.6.5/hardware/tools/avr/bin/../lib/gcc/avr/4.8.1/../../../../avr/lib/avr6/libm.a(mulsf3.o) (__mulsf3x)
/TOOLS/software/arduino-1.6.5/hardware/tools/avr/bin/../lib/gcc/avr/4.8.1/../../../../avr/lib/avr6/libm.a(unordsf2.o)
                              /ICESX/workSpaceC/SmartCarPark/product/code/frontend/dev/SmartCarParkFront-Lib/ATMEGA_LIB/libSmartCarParkFront-Lib.a(Print.o) (__unordsf2)
/TOOLS/software/arduino-1.6.5/hardware/tools/avr/bin/../lib/gcc/avr/4.8.1/../../../../avr/lib/avr6/libc.a(malloc.o)
                              /ICESX/workSpaceC/SmartCarPark/product/code/frontend/dev/SmartCarParkFront-Lib/ATMEGA_LIB/libSmartCarParkFront-Lib.a(File.o) (malloc)
/TOOLS/software/arduino-1.6.5/hardware/tools/avr/bin/../lib/gcc/avr/4.8.1/../../../../avr/lib/avr6/libc.a(abort.o)
                              /ICESX/workSpaceC/SmartCarPark/product/code/frontend/dev/SmartCarParkFront-Lib/ATMEGA_LIB/libSmartCarParkFront-Lib.a(abi.o) (abort)
/TOOLS/software/arduino-1.6.5/hardware/tools/avr/bin/../lib/gcc/avr/4.8.1/../../../../avr/lib/avr6/libc.a(memcmp.o)
                              /ICESX/workSpaceC/SmartCarPark/product/code/frontend/dev/SmartCarParkFront-Lib/ATMEGA_LIB/libSmartCarParkFront-Lib.a(IPAddress.o) (memcmp)
/TOOLS/software/arduino-1.6.5/hardware/tools/avr/bin/../lib/gcc/avr/4.8.1/../../../../avr/lib/avr6/libc.a(strchr.o)
                              /ICESX/workSpaceC/SmartCarPark/product/code/frontend/dev/SmartCarParkFront-Lib/ATMEGA_LIB/libSmartCarParkFront-Lib.a(SD.o) (strchr)
/TOOLS/software/arduino-1.6.5/hardware/tools/avr/bin/../lib/gcc/avr/4.8.1/../../../../avr/lib/avr6/libc.a(strncpy.o)
                              /ICESX/workSpaceC/SmartCarPark/product/code/frontend/dev/SmartCarParkFront-Lib/ATMEGA_LIB/libSmartCarParkFront-Lib.a(File.o) (strncpy)

Allocating common symbols
Common symbol       size              file

__brkval            0x2               /TOOLS/software/arduino-1.6.5/hardware/tools/avr/bin/../lib/gcc/avr/4.8.1/../../../../avr/lib/avr6/libc.a(malloc.o)
__flp               0x2               /TOOLS/software/arduino-1.6.5/hardware/tools/avr/bin/../lib/gcc/avr/4.8.1/../../../../avr/lib/avr6/libc.a(malloc.o)

Discarded input sections

 .bss           0x0000000000000000        0x0 /TOOLS/software/arduino-1.6.5/hardware/tools/avr/bin/../lib/gcc/avr/4.8.1/../../../../avr/lib/avr6/crtm2560.o
 .text          0x0000000000000000        0x0 ./src/SmartCarPark.o
 .bss           0x0000000000000000        0x0 ./src/SmartCarPark.o
 .text._Z10startW5100v
                0x0000000000000000        0x2 ./src/SmartCarPark.o
 .text          0x0000000000000000        0x0 /ICESX/workSpaceC/SmartCarPark/product/code/frontend/dev/SmartCarParkFront-Lib-Mine/ATMEGA_LIB/libSmartCarParkFront-Lib-Mine.a(SdCard.o)
 .bss           0x0000000000000000        0x0 /ICESX/workSpaceC/SmartCarPark/product/code/frontend/dev/SmartCarParkFront-Lib-Mine/ATMEGA_LIB/libSmartCarParkFront-Lib-Mine.a(SdCard.o)
 .text._ZN6SdCard9writeFileEPcS0_
                0x0000000000000000      0x120 /ICESX/workSpaceC/SmartCarPark/product/code/frontend/dev/SmartCarParkFront-Lib-Mine/ATMEGA_LIB/libSmartCarParkFront-Lib-Mine.a(SdCard.o)
 .text._ZN6SdCard8readFileEPc
                0x0000000000000000      0x118 /ICESX/workSpaceC/SmartCarPark/product/code/frontend/dev/SmartCarParkFront-Lib-Mine/ATMEGA_LIB/libSmartCarParkFront-Lib-Mine.a(SdCard.o)
 .group         0x0000000000000000        0x8 /ICESX/workSpaceC/SmartCarPark/product/code/frontend/dev/SmartCarParkFront-Lib/ATMEGA_LIB/libSmartCarParkFront-Lib.a(HardwareSerial.o)
 .text          0x0000000000000000        0x0 /ICESX/workSpaceC/SmartCarPark/product/code/frontend/dev/SmartCarParkFront-Lib/ATMEGA_LIB/libSmartCarParkFront-Lib.a(HardwareSerial.o)
 .bss           0x0000000000000000        0x0 /ICESX/workSpaceC/SmartCarPark/product/code/frontend/dev/SmartCarParkFront-Lib/ATMEGA_LIB/libSmartCarParkFront-Lib.a(HardwareSerial.o)
 .text._ZN14HardwareSerial3endEv
                0x0000000000000000       0x38 /ICESX/workSpaceC/SmartCarPark/product/code/frontend/dev/SmartCarParkFront-Lib/ATMEGA_LIB/libSmartCarParkFront-Lib.a(HardwareSerial.o)
 .text._ZN14HardwareSerial17availableForWriteEv
                0x0000000000000000       0x1e /ICESX/workSpaceC/SmartCarPark/product/code/frontend/dev/SmartCarParkFront-Lib/ATMEGA_LIB/libSmartCarParkFront-Lib.a(HardwareSerial.o)
 .text          0x0000000000000000        0x0 /ICESX/workSpaceC/SmartCarPark/product/code/frontend/dev/SmartCarParkFront-Lib/ATMEGA_LIB/libSmartCarParkFront-Lib.a(HardwareSerial0.o)
 .bss           0x0000000000000000        0x0 /ICESX/workSpaceC/SmartCarPark/product/code/frontend/dev/SmartCarParkFront-Lib/ATMEGA_LIB/libSmartCarParkFront-Lib.a(HardwareSerial0.o)
 .group         0x0000000000000000        0x8 /ICESX/workSpaceC/SmartCarPark/product/code/frontend/dev/SmartCarParkFront-Lib/ATMEGA_LIB/libSmartCarParkFront-Lib.a(IPAddress.o)
 .group         0x0000000000000000        0x8 /ICESX/workSpaceC/SmartCarPark/product/code/frontend/dev/SmartCarParkFront-Lib/ATMEGA_LIB/libSmartCarParkFront-Lib.a(IPAddress.o)
 .text          0x0000000000000000        0x0 /ICESX/workSpaceC/SmartCarPark/product/code/frontend/dev/SmartCarParkFront-Lib/ATMEGA_LIB/libSmartCarParkFront-Lib.a(IPAddress.o)
 .bss           0x0000000000000000        0x0 /ICESX/workSpaceC/SmartCarPark/product/code/frontend/dev/SmartCarParkFront-Lib/ATMEGA_LIB/libSmartCarParkFront-Lib.a(IPAddress.o)
 .text._ZN9IPAddressC2Ev
                0x0000000000000000       0x14 /ICESX/workSpaceC/SmartCarPark/product/code/frontend/dev/SmartCarParkFront-Lib/ATMEGA_LIB/libSmartCarParkFront-Lib.a(IPAddress.o)
 .text._ZN9IPAddressC2Em
                0x0000000000000000       0x14 /ICESX/workSpaceC/SmartCarPark/product/code/frontend/dev/SmartCarParkFront-Lib/ATMEGA_LIB/libSmartCarParkFront-Lib.a(IPAddress.o)
 .text._ZN9IPAddressC2EPKh
                0x0000000000000000       0x20 /ICESX/workSpaceC/SmartCarPark/product/code/frontend/dev/SmartCarParkFront-Lib/ATMEGA_LIB/libSmartCarParkFront-Lib.a(IPAddress.o)
 .text._ZN9IPAddressaSEPKh
                0x0000000000000000       0x16 /ICESX/workSpaceC/SmartCarPark/product/code/frontend/dev/SmartCarParkFront-Lib/ATMEGA_LIB/libSmartCarParkFront-Lib.a(IPAddress.o)
 .text._ZN9IPAddressaSEm
                0x0000000000000000        0xc /ICESX/workSpaceC/SmartCarPark/product/code/frontend/dev/SmartCarParkFront-Lib/ATMEGA_LIB/libSmartCarParkFront-Lib.a(IPAddress.o)
 .text._ZNK9IPAddresseqEPKh
                0x0000000000000000       0x1e /ICESX/workSpaceC/SmartCarPark/product/code/frontend/dev/SmartCarParkFront-Lib/ATMEGA_LIB/libSmartCarParkFront-Lib.a(IPAddress.o)
 .rodata._ZTV9Printable
                0x0000000000000000        0x6 /ICESX/workSpaceC/SmartCarPark/product/code/frontend/dev/SmartCarParkFront-Lib/ATMEGA_LIB/libSmartCarParkFront-Lib.a(IPAddress.o)
 .group         0x0000000000000000        0x8 /ICESX/workSpaceC/SmartCarPark/product/code/frontend/dev/SmartCarParkFront-Lib/ATMEGA_LIB/libSmartCarParkFront-Lib.a(Print.o)
 .group         0x0000000000000000        0x8 /ICESX/workSpaceC/SmartCarPark/product/code/frontend/dev/SmartCarParkFront-Lib/ATMEGA_LIB/libSmartCarParkFront-Lib.a(Print.o)
 .text          0x0000000000000000        0x0 /ICESX/workSpaceC/SmartCarPark/product/code/frontend/dev/SmartCarParkFront-Lib/ATMEGA_LIB/libSmartCarParkFront-Lib.a(Print.o)
 .bss           0x0000000000000000        0x0 /ICESX/workSpaceC/SmartCarPark/product/code/frontend/dev/SmartCarParkFront-Lib/ATMEGA_LIB/libSmartCarParkFront-Lib.a(Print.o)
 .text._ZN5Print5printEPK19__FlashStringHelper
                0x0000000000000000       0x4a /ICESX/workSpaceC/SmartCarPark/product/code/frontend/dev/SmartCarParkFront-Lib/ATMEGA_LIB/libSmartCarParkFront-Lib.a(Print.o)
 .text._ZN5Print5printERK6String
                0x0000000000000000       0x1c /ICESX/workSpaceC/SmartCarPark/product/code/frontend/dev/SmartCarParkFront-Lib/ATMEGA_LIB/libSmartCarParkFront-Lib.a(Print.o)
 .text._ZN5Print5printERK9Printable
                0x0000000000000000       0x14 /ICESX/workSpaceC/SmartCarPark/product/code/frontend/dev/SmartCarParkFront-Lib/ATMEGA_LIB/libSmartCarParkFront-Lib.a(Print.o)
 .text._ZN5Print7printlnEPK19__FlashStringHelper
                0x0000000000000000       0x24 /ICESX/workSpaceC/SmartCarPark/product/code/frontend/dev/SmartCarParkFront-Lib/ATMEGA_LIB/libSmartCarParkFront-Lib.a(Print.o)
 .text._ZN5Print7printlnERK6String
                0x0000000000000000       0x24 /ICESX/workSpaceC/SmartCarPark/product/code/frontend/dev/SmartCarParkFront-Lib/ATMEGA_LIB/libSmartCarParkFront-Lib.a(Print.o)
 .text._ZN5Print7printlnEc
                0x0000000000000000       0x24 /ICESX/workSpaceC/SmartCarPark/product/code/frontend/dev/SmartCarParkFront-Lib/ATMEGA_LIB/libSmartCarParkFront-Lib.a(Print.o)
 .text._ZN5Print7printlnERK9Printable
                0x0000000000000000       0x24 /ICESX/workSpaceC/SmartCarPark/product/code/frontend/dev/SmartCarParkFront-Lib/ATMEGA_LIB/libSmartCarParkFront-Lib.a(Print.o)
 .text._ZN5Print7printlnEii
                0x0000000000000000       0x30 /ICESX/workSpaceC/SmartCarPark/product/code/frontend/dev/SmartCarParkFront-Lib/ATMEGA_LIB/libSmartCarParkFront-Lib.a(Print.o)
 .text._ZN5Print7printlnEli
                0x0000000000000000       0x24 /ICESX/workSpaceC/SmartCarPark/product/code/frontend/dev/SmartCarParkFront-Lib/ATMEGA_LIB/libSmartCarParkFront-Lib.a(Print.o)
 .text._ZN5Print7printlnEji
                0x0000000000000000       0x2c /ICESX/workSpaceC/SmartCarPark/product/code/frontend/dev/SmartCarParkFront-Lib/ATMEGA_LIB/libSmartCarParkFront-Lib.a(Print.o)
 .text._ZN5Print10printFloatEdh
                0x0000000000000000      0x1d6 /ICESX/workSpaceC/SmartCarPark/product/code/frontend/dev/SmartCarParkFront-Lib/ATMEGA_LIB/libSmartCarParkFront-Lib.a(Print.o)
 .text._ZN5Print5printEdi
                0x0000000000000000        0x4 /ICESX/workSpaceC/SmartCarPark/product/code/frontend/dev/SmartCarParkFront-Lib/ATMEGA_LIB/libSmartCarParkFront-Lib.a(Print.o)
 .text._ZN5Print7printlnEdi
                0x0000000000000000       0x24 /ICESX/workSpaceC/SmartCarPark/product/code/frontend/dev/SmartCarParkFront-Lib/ATMEGA_LIB/libSmartCarParkFront-Lib.a(Print.o)
 .rodata._ZTV5Print
                0x0000000000000000        0x8 /ICESX/workSpaceC/SmartCarPark/product/code/frontend/dev/SmartCarParkFront-Lib/ATMEGA_LIB/libSmartCarParkFront-Lib.a(Print.o)
 .text          0x0000000000000000        0x0 /ICESX/workSpaceC/SmartCarPark/product/code/frontend/dev/SmartCarParkFront-Lib/ATMEGA_LIB/libSmartCarParkFront-Lib.a(abi.o)
 .bss           0x0000000000000000        0x0 /ICESX/workSpaceC/SmartCarPark/product/code/frontend/dev/SmartCarParkFront-Lib/ATMEGA_LIB/libSmartCarParkFront-Lib.a(abi.o)
 .text.__cxa_pure_virtual
                0x0000000000000000        0x4 /ICESX/workSpaceC/SmartCarPark/product/code/frontend/dev/SmartCarParkFront-Lib/ATMEGA_LIB/libSmartCarParkFront-Lib.a(abi.o)
 .text.__cxa_deleted_virtual
                0x0000000000000000        0x4 /ICESX/workSpaceC/SmartCarPark/product/code/frontend/dev/SmartCarParkFront-Lib/ATMEGA_LIB/libSmartCarParkFront-Lib.a(abi.o)
 .text          0x0000000000000000        0x0 /ICESX/workSpaceC/SmartCarPark/product/code/frontend/dev/SmartCarParkFront-Lib/ATMEGA_LIB/libSmartCarParkFront-Lib.a(main.o)
 .bss           0x0000000000000000        0x0 /ICESX/workSpaceC/SmartCarPark/product/code/frontend/dev/SmartCarParkFront-Lib/ATMEGA_LIB/libSmartCarParkFront-Lib.a(main.o)
 .text.atexit   0x0000000000000000        0x6 /ICESX/workSpaceC/SmartCarPark/product/code/frontend/dev/SmartCarParkFront-Lib/ATMEGA_LIB/libSmartCarParkFront-Lib.a(main.o)
 .text          0x0000000000000000        0x0 /ICESX/workSpaceC/SmartCarPark/product/code/frontend/dev/SmartCarParkFront-Lib/ATMEGA_LIB/libSmartCarParkFront-Lib.a(wiring.o)
 .bss           0x0000000000000000        0x0 /ICESX/workSpaceC/SmartCarPark/product/code/frontend/dev/SmartCarParkFront-Lib/ATMEGA_LIB/libSmartCarParkFront-Lib.a(wiring.o)
 .text.delayMicroseconds
                0x0000000000000000       0x16 /ICESX/workSpaceC/SmartCarPark/product/code/frontend/dev/SmartCarParkFront-Lib/ATMEGA_LIB/libSmartCarParkFront-Lib.a(wiring.o)
 .text          0x0000000000000000        0x0 /ICESX/workSpaceC/SmartCarPark/product/code/frontend/dev/SmartCarParkFront-Lib/ATMEGA_LIB/libSmartCarParkFront-Lib.a(wiring_digital.o)
 .bss           0x0000000000000000        0x0 /ICESX/workSpaceC/SmartCarPark/product/code/frontend/dev/SmartCarParkFront-Lib/ATMEGA_LIB/libSmartCarParkFront-Lib.a(wiring_digital.o)
 .text.digitalRead
                0x0000000000000000       0x52 /ICESX/workSpaceC/SmartCarPark/product/code/frontend/dev/SmartCarParkFront-Lib/ATMEGA_LIB/libSmartCarParkFront-Lib.a(wiring_digital.o)
 .group         0x0000000000000000        0x8 /ICESX/workSpaceC/SmartCarPark/product/code/frontend/dev/SmartCarParkFront-Lib/ATMEGA_LIB/libSmartCarParkFront-Lib.a(SoftwareSerial.o)
 .group         0x0000000000000000        0x8 /ICESX/workSpaceC/SmartCarPark/product/code/frontend/dev/SmartCarParkFront-Lib/ATMEGA_LIB/libSmartCarParkFront-Lib.a(SoftwareSerial.o)
 .text          0x0000000000000000        0x0 /ICESX/workSpaceC/SmartCarPark/product/code/frontend/dev/SmartCarParkFront-Lib/ATMEGA_LIB/libSmartCarParkFront-Lib.a(SoftwareSerial.o)
 .bss           0x0000000000000000        0x0 /ICESX/workSpaceC/SmartCarPark/product/code/frontend/dev/SmartCarParkFront-Lib/ATMEGA_LIB/libSmartCarParkFront-Lib.a(SoftwareSerial.o)
 .text._ZN14SoftwareSerial4recvEv
                0x0000000000000000       0xa6 /ICESX/workSpaceC/SmartCarPark/product/code/frontend/dev/SmartCarParkFront-Lib/ATMEGA_LIB/libSmartCarParkFront-Lib.a(SoftwareSerial.o)
 .text._ZN14SoftwareSerial11rx_pin_readEv
                0x0000000000000000        0xe /ICESX/workSpaceC/SmartCarPark/product/code/frontend/dev/SmartCarParkFront-Lib/ATMEGA_LIB/libSmartCarParkFront-Lib.a(SoftwareSerial.o)
 .text._ZN14SoftwareSerial12subtract_capEjj
                0x0000000000000000       0x12 /ICESX/workSpaceC/SmartCarPark/product/code/frontend/dev/SmartCarParkFront-Lib/ATMEGA_LIB/libSmartCarParkFront-Lib.a(SoftwareSerial.o)
 .text._ZN14SoftwareSerial11setRxIntMskEb
                0x0000000000000000       0x22 /ICESX/workSpaceC/SmartCarPark/product/code/frontend/dev/SmartCarParkFront-Lib/ATMEGA_LIB/libSmartCarParkFront-Lib.a(SoftwareSerial.o)
 .text._ZN14SoftwareSerial3endEv
                0x0000000000000000        0x4 /ICESX/workSpaceC/SmartCarPark/product/code/frontend/dev/SmartCarParkFront-Lib/ATMEGA_LIB/libSmartCarParkFront-Lib.a(SoftwareSerial.o)
 .rodata._ZTV6Stream
                0x0000000000000000       0x10 /ICESX/workSpaceC/SmartCarPark/product/code/frontend/dev/SmartCarParkFront-Lib/ATMEGA_LIB/libSmartCarParkFront-Lib.a(SoftwareSerial.o)
 .group         0x0000000000000000        0x8 /ICESX/workSpaceC/SmartCarPark/product/code/frontend/dev/SmartCarParkFront-Lib/ATMEGA_LIB/libSmartCarParkFront-Lib.a(Sd2Card.o)
 .group         0x0000000000000000        0x8 /ICESX/workSpaceC/SmartCarPark/product/code/frontend/dev/SmartCarParkFront-Lib/ATMEGA_LIB/libSmartCarParkFront-Lib.a(Sd2Card.o)
 .text          0x0000000000000000        0x0 /ICESX/workSpaceC/SmartCarPark/product/code/frontend/dev/SmartCarParkFront-Lib/ATMEGA_LIB/libSmartCarParkFront-Lib.a(Sd2Card.o)
 .bss           0x0000000000000000        0x0 /ICESX/workSpaceC/SmartCarPark/product/code/frontend/dev/SmartCarParkFront-Lib/ATMEGA_LIB/libSmartCarParkFront-Lib.a(Sd2Card.o)
 .text._ZN7Sd2Card16partialBlockReadEh
                0x0000000000000000       0x28 /ICESX/workSpaceC/SmartCarPark/product/code/frontend/dev/SmartCarParkFront-Lib/ATMEGA_LIB/libSmartCarParkFront-Lib.a(Sd2Card.o)
 .text._ZN7Sd2Card12readRegisterEhPv
                0x0000000000000000       0x74 /ICESX/workSpaceC/SmartCarPark/product/code/frontend/dev/SmartCarParkFront-Lib/ATMEGA_LIB/libSmartCarParkFront-Lib.a(Sd2Card.o)
 .text._ZN7Sd2Card8cardSizeEv
                0x0000000000000000       0xfc /ICESX/workSpaceC/SmartCarPark/product/code/frontend/dev/SmartCarParkFront-Lib/ATMEGA_LIB/libSmartCarParkFront-Lib.a(Sd2Card.o)
 .text._ZN7Sd2Card22eraseSingleBlockEnableEv
                0x0000000000000000       0x42 /ICESX/workSpaceC/SmartCarPark/product/code/frontend/dev/SmartCarParkFront-Lib/ATMEGA_LIB/libSmartCarParkFront-Lib.a(Sd2Card.o)
 .text._ZN7Sd2Card5eraseEmm
                0x0000000000000000       0xdc /ICESX/workSpaceC/SmartCarPark/product/code/frontend/dev/SmartCarParkFront-Lib/ATMEGA_LIB/libSmartCarParkFront-Lib.a(Sd2Card.o)
 .text._ZN7Sd2Card9writeDataEPKh
                0x0000000000000000       0x40 /ICESX/workSpaceC/SmartCarPark/product/code/frontend/dev/SmartCarParkFront-Lib/ATMEGA_LIB/libSmartCarParkFront-Lib.a(Sd2Card.o)
 .text._ZN7Sd2Card10writeStartEmm
                0x0000000000000000       0x9e /ICESX/workSpaceC/SmartCarPark/product/code/frontend/dev/SmartCarParkFront-Lib/ATMEGA_LIB/libSmartCarParkFront-Lib.a(Sd2Card.o)
 .text._ZN7Sd2Card9writeStopEv
                0x0000000000000000       0x42 /ICESX/workSpaceC/SmartCarPark/product/code/frontend/dev/SmartCarParkFront-Lib/ATMEGA_LIB/libSmartCarParkFront-Lib.a(Sd2Card.o)
 .group         0x0000000000000000        0x8 /ICESX/workSpaceC/SmartCarPark/product/code/frontend/dev/SmartCarParkFront-Lib/ATMEGA_LIB/libSmartCarParkFront-Lib.a(SdFile.o)
 .text          0x0000000000000000        0x0 /ICESX/workSpaceC/SmartCarPark/product/code/frontend/dev/SmartCarParkFront-Lib/ATMEGA_LIB/libSmartCarParkFront-Lib.a(SdFile.o)
 .bss           0x0000000000000000        0x0 /ICESX/workSpaceC/SmartCarPark/product/code/frontend/dev/SmartCarParkFront-Lib/ATMEGA_LIB/libSmartCarParkFront-Lib.a(SdFile.o)
 .text._ZN6SdFile13addDirClusterEv
                0x0000000000000000       0xc2 /ICESX/workSpaceC/SmartCarPark/product/code/frontend/dev/SmartCarParkFront-Lib/ATMEGA_LIB/libSmartCarParkFront-Lib.a(SdFile.o)
 .text._ZN6SdFile15contiguousRangeEPmS0_
                0x0000000000000000      0x15c /ICESX/workSpaceC/SmartCarPark/product/code/frontend/dev/SmartCarParkFront-Lib/ATMEGA_LIB/libSmartCarParkFront-Lib.a(SdFile.o)
 .text._ZN6SdFile7dirNameERK14directoryEntryPc
                0x0000000000000000       0x3c /ICESX/workSpaceC/SmartCarPark/product/code/frontend/dev/SmartCarParkFront-Lib/ATMEGA_LIB/libSmartCarParkFront-Lib.a(SdFile.o)
 .text._ZN6SdFile10make83NameEPKcPh
                0x0000000000000000       0x70 /ICESX/workSpaceC/SmartCarPark/product/code/frontend/dev/SmartCarParkFront-Lib/ATMEGA_LIB/libSmartCarParkFront-Lib.a(SdFile.o)
 .text._ZN6SdFile7readDirEP14directoryEntry
                0x0000000000000000       0x68 /ICESX/workSpaceC/SmartCarPark/product/code/frontend/dev/SmartCarParkFront-Lib/ATMEGA_LIB/libSmartCarParkFront-Lib.a(SdFile.o)
 .text._ZN6SdFile5closeEv
                0x0000000000000000       0x1c /ICESX/workSpaceC/SmartCarPark/product/code/frontend/dev/SmartCarParkFront-Lib/ATMEGA_LIB/libSmartCarParkFront-Lib.a(SdFile.o)
 .text._ZN6SdFile8dirEntryEP14directoryEntry
                0x0000000000000000       0x3e /ICESX/workSpaceC/SmartCarPark/product/code/frontend/dev/SmartCarParkFront-Lib/ATMEGA_LIB/libSmartCarParkFront-Lib.a(SdFile.o)
 .text._ZN6SdFile9timestampEhjhhhhh
                0x0000000000000000      0x134 /ICESX/workSpaceC/SmartCarPark/product/code/frontend/dev/SmartCarParkFront-Lib/ATMEGA_LIB/libSmartCarParkFront-Lib.a(SdFile.o)
 .text._ZN6SdFile4openEPS_PKch
                0x0000000000000000      0x1ca /ICESX/workSpaceC/SmartCarPark/product/code/frontend/dev/SmartCarParkFront-Lib/ATMEGA_LIB/libSmartCarParkFront-Lib.a(SdFile.o)
 .text._ZN6SdFile7makeDirEPS_PKc
                0x0000000000000000      0x1c0 /ICESX/workSpaceC/SmartCarPark/product/code/frontend/dev/SmartCarParkFront-Lib/ATMEGA_LIB/libSmartCarParkFront-Lib.a(SdFile.o)
 .text._ZN6SdFile6removeEv
                0x0000000000000000       0x38 /ICESX/workSpaceC/SmartCarPark/product/code/frontend/dev/SmartCarParkFront-Lib/ATMEGA_LIB/libSmartCarParkFront-Lib.a(SdFile.o)
 .text._ZN6SdFile16createContiguousEPS_PKcm
                0x0000000000000000       0xa4 /ICESX/workSpaceC/SmartCarPark/product/code/frontend/dev/SmartCarParkFront-Lib/ATMEGA_LIB/libSmartCarParkFront-Lib.a(SdFile.o)
 .text._ZN6SdFile6removeEPS_PKc
                0x0000000000000000       0x52 /ICESX/workSpaceC/SmartCarPark/product/code/frontend/dev/SmartCarParkFront-Lib/ATMEGA_LIB/libSmartCarParkFront-Lib.a(SdFile.o)
 .text._ZN6SdFile5rmDirEv
                0x0000000000000000       0x80 /ICESX/workSpaceC/SmartCarPark/product/code/frontend/dev/SmartCarParkFront-Lib/ATMEGA_LIB/libSmartCarParkFront-Lib.a(SdFile.o)
 .text._ZN6SdFile8rmRfStarEv
                0x0000000000000000      0x13e /ICESX/workSpaceC/SmartCarPark/product/code/frontend/dev/SmartCarParkFront-Lib/ATMEGA_LIB/libSmartCarParkFront-Lib.a(SdFile.o)
 .text._ZN6SdFile5writeEPKc
                0x0000000000000000       0x16 /ICESX/workSpaceC/SmartCarPark/product/code/frontend/dev/SmartCarParkFront-Lib/ATMEGA_LIB/libSmartCarParkFront-Lib.a(SdFile.o)
 .text._ZN6SdFile7write_PEPKc
                0x0000000000000000       0x32 /ICESX/workSpaceC/SmartCarPark/product/code/frontend/dev/SmartCarParkFront-Lib/ATMEGA_LIB/libSmartCarParkFront-Lib.a(SdFile.o)
 .text._ZN6SdFile9writeln_PEPKc
                0x0000000000000000       0x14 /ICESX/workSpaceC/SmartCarPark/product/code/frontend/dev/SmartCarParkFront-Lib/ATMEGA_LIB/libSmartCarParkFront-Lib.a(SdFile.o)
 .progmem.data._ZZN6SdFile10make83NameEPKcPhE3__c
                0x0000000000000000       0x10 /ICESX/workSpaceC/SmartCarPark/product/code/frontend/dev/SmartCarParkFront-Lib/ATMEGA_LIB/libSmartCarParkFront-Lib.a(SdFile.o)
 .bss._ZN6SdFile12oldDateTime_E
                0x0000000000000000        0x2 /ICESX/workSpaceC/SmartCarPark/product/code/frontend/dev/SmartCarParkFront-Lib/ATMEGA_LIB/libSmartCarParkFront-Lib.a(SdFile.o)
 .text          0x0000000000000000        0x0 /ICESX/workSpaceC/SmartCarPark/product/code/frontend/dev/SmartCarParkFront-Lib/ATMEGA_LIB/libSmartCarParkFront-Lib.a(SdVolume.o)
 .bss           0x0000000000000000        0x0 /ICESX/workSpaceC/SmartCarPark/product/code/frontend/dev/SmartCarParkFront-Lib/ATMEGA_LIB/libSmartCarParkFront-Lib.a(SdVolume.o)
 .text._ZN8SdVolume14cacheZeroBlockEm
                0x0000000000000000       0x4c /ICESX/workSpaceC/SmartCarPark/product/code/frontend/dev/SmartCarParkFront-Lib/ATMEGA_LIB/libSmartCarParkFront-Lib.a(SdVolume.o)
 .group         0x0000000000000000        0x8 /ICESX/workSpaceC/SmartCarPark/product/code/frontend/dev/SmartCarParkFront-Lib/ATMEGA_LIB/libSmartCarParkFront-Lib.a(File.o)
 .group         0x0000000000000000        0x8 /ICESX/workSpaceC/SmartCarPark/product/code/frontend/dev/SmartCarParkFront-Lib/ATMEGA_LIB/libSmartCarParkFront-Lib.a(File.o)
 .group         0x0000000000000000        0x8 /ICESX/workSpaceC/SmartCarPark/product/code/frontend/dev/SmartCarParkFront-Lib/ATMEGA_LIB/libSmartCarParkFront-Lib.a(File.o)
 .text          0x0000000000000000        0x0 /ICESX/workSpaceC/SmartCarPark/product/code/frontend/dev/SmartCarParkFront-Lib/ATMEGA_LIB/libSmartCarParkFront-Lib.a(File.o)
 .bss           0x0000000000000000        0x0 /ICESX/workSpaceC/SmartCarPark/product/code/frontend/dev/SmartCarParkFront-Lib/ATMEGA_LIB/libSmartCarParkFront-Lib.a(File.o)
 .text._ZN4FileC2E6SdFilePKc
                0x0000000000000000       0x72 /ICESX/workSpaceC/SmartCarPark/product/code/frontend/dev/SmartCarParkFront-Lib/ATMEGA_LIB/libSmartCarParkFront-Lib.a(File.o)
 .text._ZN4File4nameEv
                0x0000000000000000        0x4 /ICESX/workSpaceC/SmartCarPark/product/code/frontend/dev/SmartCarParkFront-Lib/ATMEGA_LIB/libSmartCarParkFront-Lib.a(File.o)
 .text._ZN4File11isDirectoryEv
                0x0000000000000000       0x1a /ICESX/workSpaceC/SmartCarPark/product/code/frontend/dev/SmartCarParkFront-Lib/ATMEGA_LIB/libSmartCarParkFront-Lib.a(File.o)
 .text._ZN4File4readEPvj
                0x0000000000000000       0x14 /ICESX/workSpaceC/SmartCarPark/product/code/frontend/dev/SmartCarParkFront-Lib/ATMEGA_LIB/libSmartCarParkFront-Lib.a(File.o)
 .text._ZN4File4seekEm
                0x0000000000000000       0x1a /ICESX/workSpaceC/SmartCarPark/product/code/frontend/dev/SmartCarParkFront-Lib/ATMEGA_LIB/libSmartCarParkFront-Lib.a(File.o)
 .text._ZN4File5closeEv
                0x0000000000000000       0x24 /ICESX/workSpaceC/SmartCarPark/product/code/frontend/dev/SmartCarParkFront-Lib/ATMEGA_LIB/libSmartCarParkFront-Lib.a(File.o)
 .text._ZN4FilecvbEv
                0x0000000000000000       0x1a /ICESX/workSpaceC/SmartCarPark/product/code/frontend/dev/SmartCarParkFront-Lib/ATMEGA_LIB/libSmartCarParkFront-Lib.a(File.o)
 .rodata._ZTV6Stream
                0x0000000000000000       0x10 /ICESX/workSpaceC/SmartCarPark/product/code/frontend/dev/SmartCarParkFront-Lib/ATMEGA_LIB/libSmartCarParkFront-Lib.a(File.o)
 .group         0x0000000000000000        0x8 /ICESX/workSpaceC/SmartCarPark/product/code/frontend/dev/SmartCarParkFront-Lib/ATMEGA_LIB/libSmartCarParkFront-Lib.a(SD.o)
 .text          0x0000000000000000        0x0 /ICESX/workSpaceC/SmartCarPark/product/code/frontend/dev/SmartCarParkFront-Lib/ATMEGA_LIB/libSmartCarParkFront-Lib.a(SD.o)
 .bss           0x0000000000000000        0x0 /ICESX/workSpaceC/SmartCarPark/product/code/frontend/dev/SmartCarParkFront-Lib/ATMEGA_LIB/libSmartCarParkFront-Lib.a(SD.o)
 .text._Z19callback_pathExistsR6SdFilePcbPv
                0x0000000000000000       0x5a /ICESX/workSpaceC/SmartCarPark/product/code/frontend/dev/SmartCarParkFront-Lib/ATMEGA_LIB/libSmartCarParkFront-Lib.a(SD.o)
 .text._Z20callback_makeDirPathR6SdFilePcbPv
                0x0000000000000000       0x6a /ICESX/workSpaceC/SmartCarPark/product/code/frontend/dev/SmartCarParkFront-Lib/ATMEGA_LIB/libSmartCarParkFront-Lib.a(SD.o)
 .text._Z14callback_rmdirR6SdFilePcbPv
                0x0000000000000000       0x60 /ICESX/workSpaceC/SmartCarPark/product/code/frontend/dev/SmartCarParkFront-Lib/ATMEGA_LIB/libSmartCarParkFront-Lib.a(SD.o)
 .text._Z15callback_removeR6SdFilePcbPv
                0x0000000000000000       0x18 /ICESX/workSpaceC/SmartCarPark/product/code/frontend/dev/SmartCarParkFront-Lib/ATMEGA_LIB/libSmartCarParkFront-Lib.a(SD.o)
 .text._Z20getNextPathComponentPcPjS_
                0x0000000000000000       0x70 /ICESX/workSpaceC/SmartCarPark/product/code/frontend/dev/SmartCarParkFront-Lib/ATMEGA_LIB/libSmartCarParkFront-Lib.a(SD.o)
 .text._Z8walkPathPcR6SdFilePFbS1_S_bPvES2_
                0x0000000000000000      0x120 /ICESX/workSpaceC/SmartCarPark/product/code/frontend/dev/SmartCarParkFront-Lib/ATMEGA_LIB/libSmartCarParkFront-Lib.a(SD.o)
 .text._ZN6SdFileC2ERKS_
                0x0000000000000000       0xa2 /ICESX/workSpaceC/SmartCarPark/product/code/frontend/dev/SmartCarParkFront-Lib/ATMEGA_LIB/libSmartCarParkFront-Lib.a(SD.o)
 .text._ZN7SDClass12getParentDirEPKcPi
                0x0000000000000000      0x132 /ICESX/workSpaceC/SmartCarPark/product/code/frontend/dev/SmartCarParkFront-Lib/ATMEGA_LIB/libSmartCarParkFront-Lib.a(SD.o)
 .rodata.str1.1
                0x0000000000000000        0x2 /ICESX/workSpaceC/SmartCarPark/product/code/frontend/dev/SmartCarParkFront-Lib/ATMEGA_LIB/libSmartCarParkFront-Lib.a(SD.o)
 .text._ZN7SDClass4openEPKch
                0x0000000000000000      0x11c /ICESX/workSpaceC/SmartCarPark/product/code/frontend/dev/SmartCarParkFront-Lib/ATMEGA_LIB/libSmartCarParkFront-Lib.a(SD.o)
 .text._ZN7SDClass6existsEPc
                0x0000000000000000       0x16 /ICESX/workSpaceC/SmartCarPark/product/code/frontend/dev/SmartCarParkFront-Lib/ATMEGA_LIB/libSmartCarParkFront-Lib.a(SD.o)
 .text._ZN7SDClass5mkdirEPc
                0x0000000000000000       0x16 /ICESX/workSpaceC/SmartCarPark/product/code/frontend/dev/SmartCarParkFront-Lib/ATMEGA_LIB/libSmartCarParkFront-Lib.a(SD.o)
 .text._ZN7SDClass5rmdirEPc
                0x0000000000000000       0x16 /ICESX/workSpaceC/SmartCarPark/product/code/frontend/dev/SmartCarParkFront-Lib/ATMEGA_LIB/libSmartCarParkFront-Lib.a(SD.o)
 .text._ZN7SDClass6removeEPc
                0x0000000000000000       0x16 /ICESX/workSpaceC/SmartCarPark/product/code/frontend/dev/SmartCarParkFront-Lib/ATMEGA_LIB/libSmartCarParkFront-Lib.a(SD.o)
 .text._ZN4File12openNextFileEh
                0x0000000000000000       0xd4 /ICESX/workSpaceC/SmartCarPark/product/code/frontend/dev/SmartCarParkFront-Lib/ATMEGA_LIB/libSmartCarParkFront-Lib.a(SD.o)
 .text._ZN4File15rewindDirectoryEv
                0x0000000000000000       0x28 /ICESX/workSpaceC/SmartCarPark/product/code/frontend/dev/SmartCarParkFront-Lib/ATMEGA_LIB/libSmartCarParkFront-Lib.a(SD.o)
 .text          0x0000000000000000        0x0 /ICESX/workSpaceC/SmartCarPark/product/code/frontend/dev/SmartCarParkFront-Lib/ATMEGA_LIB/libSmartCarParkFront-Lib.a(hooks.o)
 .bss           0x0000000000000000        0x0 /ICESX/workSpaceC/SmartCarPark/product/code/frontend/dev/SmartCarParkFront-Lib/ATMEGA_LIB/libSmartCarParkFront-Lib.a(hooks.o)
 .text          0x0000000000000000        0x0 /ICESX/workSpaceC/SmartCarPark/product/code/frontend/dev/SmartCarParkFront-Lib/ATMEGA_LIB/libSmartCarParkFront-Lib.a(SPI.o)
 .bss           0x0000000000000000        0x0 /ICESX/workSpaceC/SmartCarPark/product/code/frontend/dev/SmartCarParkFront-Lib/ATMEGA_LIB/libSmartCarParkFront-Lib.a(SPI.o)
 .text._ZN8SPIClass3endEv
                0x0000000000000000       0x28 /ICESX/workSpaceC/SmartCarPark/product/code/frontend/dev/SmartCarParkFront-Lib/ATMEGA_LIB/libSmartCarParkFront-Lib.a(SPI.o)
 .text._ZN8SPIClass14usingInterruptEh
                0x0000000000000000       0x5a /ICESX/workSpaceC/SmartCarPark/product/code/frontend/dev/SmartCarParkFront-Lib/ATMEGA_LIB/libSmartCarParkFront-Lib.a(SPI.o)
 .progmem.gcc_sw_table._ZN8SPIClass14usingInterruptEh
                0x0000000000000000       0x10 /ICESX/workSpaceC/SmartCarPark/product/code/frontend/dev/SmartCarParkFront-Lib/ATMEGA_LIB/libSmartCarParkFront-Lib.a(SPI.o)
 .text._ZN8SPIClass17notUsingInterruptEh
                0x0000000000000000       0x36 /ICESX/workSpaceC/SmartCarPark/product/code/frontend/dev/SmartCarParkFront-Lib/ATMEGA_LIB/libSmartCarParkFront-Lib.a(SPI.o)
 .rodata.CSWTCH.20
                0x0000000000000000        0x8 /ICESX/workSpaceC/SmartCarPark/product/code/frontend/dev/SmartCarParkFront-Lib/ATMEGA_LIB/libSmartCarParkFront-Lib.a(SPI.o)
 .bss.SPI       0x0000000000000000        0x1 /ICESX/workSpaceC/SmartCarPark/product/code/frontend/dev/SmartCarParkFront-Lib/ATMEGA_LIB/libSmartCarParkFront-Lib.a(SPI.o)
 .text          0x0000000000000000        0x0 /TOOLS/software/arduino-1.6.5/hardware/tools/avr/bin/../lib/gcc/avr/4.8.1/avr6/libgcc.a(_udivmodqi4.o)
 .bss           0x0000000000000000        0x0 /TOOLS/software/arduino-1.6.5/hardware/tools/avr/bin/../lib/gcc/avr/4.8.1/avr6/libgcc.a(_udivmodqi4.o)
 .text.libgcc.mul
                0x0000000000000000        0x0 /TOOLS/software/arduino-1.6.5/hardware/tools/avr/bin/../lib/gcc/avr/4.8.1/avr6/libgcc.a(_udivmodqi4.o)
 .text.libgcc   0x0000000000000000        0x0 /TOOLS/software/arduino-1.6.5/hardware/tools/avr/bin/../lib/gcc/avr/4.8.1/avr6/libgcc.a(_udivmodqi4.o)
 .text.libgcc.prologue
                0x0000000000000000        0x0 /TOOLS/software/arduino-1.6.5/hardware/tools/avr/bin/../lib/gcc/avr/4.8.1/avr6/libgcc.a(_udivmodqi4.o)
 .text.libgcc.builtins
                0x0000000000000000        0x0 /TOOLS/software/arduino-1.6.5/hardware/tools/avr/bin/../lib/gcc/avr/4.8.1/avr6/libgcc.a(_udivmodqi4.o)
 .text.libgcc.fmul
                0x0000000000000000        0x0 /TOOLS/software/arduino-1.6.5/hardware/tools/avr/bin/../lib/gcc/avr/4.8.1/avr6/libgcc.a(_udivmodqi4.o)
 .text.libgcc.fixed
                0x0000000000000000        0x0 /TOOLS/software/arduino-1.6.5/hardware/tools/avr/bin/../lib/gcc/avr/4.8.1/avr6/libgcc.a(_udivmodqi4.o)
 .text          0x0000000000000000        0x0 /TOOLS/software/arduino-1.6.5/hardware/tools/avr/bin/../lib/gcc/avr/4.8.1/avr6/libgcc.a(_divmodhi4.o)
 .bss           0x0000000000000000        0x0 /TOOLS/software/arduino-1.6.5/hardware/tools/avr/bin/../lib/gcc/avr/4.8.1/avr6/libgcc.a(_divmodhi4.o)
 .text.libgcc.mul
                0x0000000000000000        0x0 /TOOLS/software/arduino-1.6.5/hardware/tools/avr/bin/../lib/gcc/avr/4.8.1/avr6/libgcc.a(_divmodhi4.o)
 .text.libgcc   0x0000000000000000        0x0 /TOOLS/software/arduino-1.6.5/hardware/tools/avr/bin/../lib/gcc/avr/4.8.1/avr6/libgcc.a(_divmodhi4.o)
 .text.libgcc.prologue
                0x0000000000000000        0x0 /TOOLS/software/arduino-1.6.5/hardware/tools/avr/bin/../lib/gcc/avr/4.8.1/avr6/libgcc.a(_divmodhi4.o)
 .text.libgcc.builtins
                0x0000000000000000        0x0 /TOOLS/software/arduino-1.6.5/hardware/tools/avr/bin/../lib/gcc/avr/4.8.1/avr6/libgcc.a(_divmodhi4.o)
 .text.libgcc.fmul
                0x0000000000000000        0x0 /TOOLS/software/arduino-1.6.5/hardware/tools/avr/bin/../lib/gcc/avr/4.8.1/avr6/libgcc.a(_divmodhi4.o)
 .text.libgcc.fixed
                0x0000000000000000        0x0 /TOOLS/software/arduino-1.6.5/hardware/tools/avr/bin/../lib/gcc/avr/4.8.1/avr6/libgcc.a(_divmodhi4.o)
 .text          0x0000000000000000        0x0 /TOOLS/software/arduino-1.6.5/hardware/tools/avr/bin/../lib/gcc/avr/4.8.1/avr6/libgcc.a(_udivmodsi4.o)
 .bss           0x0000000000000000        0x0 /TOOLS/software/arduino-1.6.5/hardware/tools/avr/bin/../lib/gcc/avr/4.8.1/avr6/libgcc.a(_udivmodsi4.o)
 .text.libgcc.mul
                0x0000000000000000        0x0 /TOOLS/software/arduino-1.6.5/hardware/tools/avr/bin/../lib/gcc/avr/4.8.1/avr6/libgcc.a(_udivmodsi4.o)
 .text.libgcc   0x0000000000000000        0x0 /TOOLS/software/arduino-1.6.5/hardware/tools/avr/bin/../lib/gcc/avr/4.8.1/avr6/libgcc.a(_udivmodsi4.o)
 .text.libgcc.prologue
                0x0000000000000000        0x0 /TOOLS/software/arduino-1.6.5/hardware/tools/avr/bin/../lib/gcc/avr/4.8.1/avr6/libgcc.a(_udivmodsi4.o)
 .text.libgcc.builtins
                0x0000000000000000        0x0 /TOOLS/software/arduino-1.6.5/hardware/tools/avr/bin/../lib/gcc/avr/4.8.1/avr6/libgcc.a(_udivmodsi4.o)
 .text.libgcc.fmul
                0x0000000000000000        0x0 /TOOLS/software/arduino-1.6.5/hardware/tools/avr/bin/../lib/gcc/avr/4.8.1/avr6/libgcc.a(_udivmodsi4.o)
 .text.libgcc.fixed
                0x0000000000000000        0x0 /TOOLS/software/arduino-1.6.5/hardware/tools/avr/bin/../lib/gcc/avr/4.8.1/avr6/libgcc.a(_udivmodsi4.o)
 .text          0x0000000000000000        0x0 /TOOLS/software/arduino-1.6.5/hardware/tools/avr/bin/../lib/gcc/avr/4.8.1/avr6/libgcc.a(_divmodsi4.o)
 .bss           0x0000000000000000        0x0 /TOOLS/software/arduino-1.6.5/hardware/tools/avr/bin/../lib/gcc/avr/4.8.1/avr6/libgcc.a(_divmodsi4.o)
 .text.libgcc.mul
                0x0000000000000000        0x0 /TOOLS/software/arduino-1.6.5/hardware/tools/avr/bin/../lib/gcc/avr/4.8.1/avr6/libgcc.a(_divmodsi4.o)
 .text.libgcc   0x0000000000000000        0x0 /TOOLS/software/arduino-1.6.5/hardware/tools/avr/bin/../lib/gcc/avr/4.8.1/avr6/libgcc.a(_divmodsi4.o)
 .text.libgcc.prologue
                0x0000000000000000        0x0 /TOOLS/software/arduino-1.6.5/hardware/tools/avr/bin/../lib/gcc/avr/4.8.1/avr6/libgcc.a(_divmodsi4.o)
 .text.libgcc.builtins
                0x0000000000000000        0x0 /TOOLS/software/arduino-1.6.5/hardware/tools/avr/bin/../lib/gcc/avr/4.8.1/avr6/libgcc.a(_divmodsi4.o)
 .text.libgcc.fmul
                0x0000000000000000        0x0 /TOOLS/software/arduino-1.6.5/hardware/tools/avr/bin/../lib/gcc/avr/4.8.1/avr6/libgcc.a(_divmodsi4.o)
 .text.libgcc.fixed
                0x0000000000000000        0x0 /TOOLS/software/arduino-1.6.5/hardware/tools/avr/bin/../lib/gcc/avr/4.8.1/avr6/libgcc.a(_divmodsi4.o)
 .text          0x0000000000000000        0x0 /TOOLS/software/arduino-1.6.5/hardware/tools/avr/bin/../lib/gcc/avr/4.8.1/avr6/libgcc.a(_negsi2.o)
 .bss           0x0000000000000000        0x0 /TOOLS/software/arduino-1.6.5/hardware/tools/avr/bin/../lib/gcc/avr/4.8.1/avr6/libgcc.a(_negsi2.o)
 .text.libgcc.mul
                0x0000000000000000        0x0 /TOOLS/software/arduino-1.6.5/hardware/tools/avr/bin/../lib/gcc/avr/4.8.1/avr6/libgcc.a(_negsi2.o)
 .text.libgcc   0x0000000000000000        0x0 /TOOLS/software/arduino-1.6.5/hardware/tools/avr/bin/../lib/gcc/avr/4.8.1/avr6/libgcc.a(_negsi2.o)
 .text.libgcc.prologue
                0x0000000000000000        0x0 /TOOLS/software/arduino-1.6.5/hardware/tools/avr/bin/../lib/gcc/avr/4.8.1/avr6/libgcc.a(_negsi2.o)
 .text.libgcc.builtins
                0x0000000000000000        0x0 /TOOLS/software/arduino-1.6.5/hardware/tools/avr/bin/../lib/gcc/avr/4.8.1/avr6/libgcc.a(_negsi2.o)
 .text.libgcc.fmul
                0x0000000000000000        0x0 /TOOLS/software/arduino-1.6.5/hardware/tools/avr/bin/../lib/gcc/avr/4.8.1/avr6/libgcc.a(_negsi2.o)
 .text.libgcc.fixed
                0x0000000000000000        0x0 /TOOLS/software/arduino-1.6.5/hardware/tools/avr/bin/../lib/gcc/avr/4.8.1/avr6/libgcc.a(_negsi2.o)
 .text          0x0000000000000000        0x0 /TOOLS/software/arduino-1.6.5/hardware/tools/avr/bin/../lib/gcc/avr/4.8.1/avr6/libgcc.a(_exit.o)
 .bss           0x0000000000000000        0x0 /TOOLS/software/arduino-1.6.5/hardware/tools/avr/bin/../lib/gcc/avr/4.8.1/avr6/libgcc.a(_exit.o)
 .text.libgcc.mul
                0x0000000000000000        0x0 /TOOLS/software/arduino-1.6.5/hardware/tools/avr/bin/../lib/gcc/avr/4.8.1/avr6/libgcc.a(_exit.o)
 .text.libgcc.div
                0x0000000000000000        0x0 /TOOLS/software/arduino-1.6.5/hardware/tools/avr/bin/../lib/gcc/avr/4.8.1/avr6/libgcc.a(_exit.o)
 .text.libgcc   0x0000000000000000        0x0 /TOOLS/software/arduino-1.6.5/hardware/tools/avr/bin/../lib/gcc/avr/4.8.1/avr6/libgcc.a(_exit.o)
 .text.libgcc.prologue
                0x0000000000000000        0x0 /TOOLS/software/arduino-1.6.5/hardware/tools/avr/bin/../lib/gcc/avr/4.8.1/avr6/libgcc.a(_exit.o)
 .text.libgcc.builtins
                0x0000000000000000        0x0 /TOOLS/software/arduino-1.6.5/hardware/tools/avr/bin/../lib/gcc/avr/4.8.1/avr6/libgcc.a(_exit.o)
 .text.libgcc.fmul
                0x0000000000000000        0x0 /TOOLS/software/arduino-1.6.5/hardware/tools/avr/bin/../lib/gcc/avr/4.8.1/avr6/libgcc.a(_exit.o)
 .text.libgcc.fixed
                0x0000000000000000        0x0 /TOOLS/software/arduino-1.6.5/hardware/tools/avr/bin/../lib/gcc/avr/4.8.1/avr6/libgcc.a(_exit.o)
 .text          0x0000000000000000        0x0 /TOOLS/software/arduino-1.6.5/hardware/tools/avr/bin/../lib/gcc/avr/4.8.1/avr6/libgcc.a(_tablejump.o)
 .bss           0x0000000000000000        0x0 /TOOLS/software/arduino-1.6.5/hardware/tools/avr/bin/../lib/gcc/avr/4.8.1/avr6/libgcc.a(_tablejump.o)
 .text.libgcc.mul
                0x0000000000000000        0x0 /TOOLS/software/arduino-1.6.5/hardware/tools/avr/bin/../lib/gcc/avr/4.8.1/avr6/libgcc.a(_tablejump.o)
 .text.libgcc.div
                0x0000000000000000        0x0 /TOOLS/software/arduino-1.6.5/hardware/tools/avr/bin/../lib/gcc/avr/4.8.1/avr6/libgcc.a(_tablejump.o)
 .text.libgcc.prologue
                0x0000000000000000        0x0 /TOOLS/software/arduino-1.6.5/hardware/tools/avr/bin/../lib/gcc/avr/4.8.1/avr6/libgcc.a(_tablejump.o)
 .text.libgcc.builtins
                0x0000000000000000        0x0 /TOOLS/software/arduino-1.6.5/hardware/tools/avr/bin/../lib/gcc/avr/4.8.1/avr6/libgcc.a(_tablejump.o)
 .text.libgcc.fmul
                0x0000000000000000        0x0 /TOOLS/software/arduino-1.6.5/hardware/tools/avr/bin/../lib/gcc/avr/4.8.1/avr6/libgcc.a(_tablejump.o)
 .text.libgcc.fixed
                0x0000000000000000        0x0 /TOOLS/software/arduino-1.6.5/hardware/tools/avr/bin/../lib/gcc/avr/4.8.1/avr6/libgcc.a(_tablejump.o)
 .text          0x0000000000000000        0x0 /TOOLS/software/arduino-1.6.5/hardware/tools/avr/bin/../lib/gcc/avr/4.8.1/avr6/libgcc.a(_copy_data.o)
 .bss           0x0000000000000000        0x0 /TOOLS/software/arduino-1.6.5/hardware/tools/avr/bin/../lib/gcc/avr/4.8.1/avr6/libgcc.a(_copy_data.o)
 .text.libgcc.mul
                0x0000000000000000        0x0 /TOOLS/software/arduino-1.6.5/hardware/tools/avr/bin/../lib/gcc/avr/4.8.1/avr6/libgcc.a(_copy_data.o)
 .text.libgcc.div
                0x0000000000000000        0x0 /TOOLS/software/arduino-1.6.5/hardware/tools/avr/bin/../lib/gcc/avr/4.8.1/avr6/libgcc.a(_copy_data.o)
 .text.libgcc   0x0000000000000000        0x0 /TOOLS/software/arduino-1.6.5/hardware/tools/avr/bin/../lib/gcc/avr/4.8.1/avr6/libgcc.a(_copy_data.o)
 .text.libgcc.prologue
                0x0000000000000000        0x0 /TOOLS/software/arduino-1.6.5/hardware/tools/avr/bin/../lib/gcc/avr/4.8.1/avr6/libgcc.a(_copy_data.o)
 .text.libgcc.builtins
                0x0000000000000000        0x0 /TOOLS/software/arduino-1.6.5/hardware/tools/avr/bin/../lib/gcc/avr/4.8.1/avr6/libgcc.a(_copy_data.o)
 .text.libgcc.fmul
                0x0000000000000000        0x0 /TOOLS/software/arduino-1.6.5/hardware/tools/avr/bin/../lib/gcc/avr/4.8.1/avr6/libgcc.a(_copy_data.o)
 .text.libgcc.fixed
                0x0000000000000000        0x0 /TOOLS/software/arduino-1.6.5/hardware/tools/avr/bin/../lib/gcc/avr/4.8.1/avr6/libgcc.a(_copy_data.o)
 .text          0x0000000000000000        0x0 /TOOLS/software/arduino-1.6.5/hardware/tools/avr/bin/../lib/gcc/avr/4.8.1/avr6/libgcc.a(_clear_bss.o)
 .bss           0x0000000000000000        0x0 /TOOLS/software/arduino-1.6.5/hardware/tools/avr/bin/../lib/gcc/avr/4.8.1/avr6/libgcc.a(_clear_bss.o)
 .text.libgcc.mul
                0x0000000000000000        0x0 /TOOLS/software/arduino-1.6.5/hardware/tools/avr/bin/../lib/gcc/avr/4.8.1/avr6/libgcc.a(_clear_bss.o)
 .text.libgcc.div
                0x0000000000000000        0x0 /TOOLS/software/arduino-1.6.5/hardware/tools/avr/bin/../lib/gcc/avr/4.8.1/avr6/libgcc.a(_clear_bss.o)
 .text.libgcc   0x0000000000000000        0x0 /TOOLS/software/arduino-1.6.5/hardware/tools/avr/bin/../lib/gcc/avr/4.8.1/avr6/libgcc.a(_clear_bss.o)
 .text.libgcc.prologue
                0x0000000000000000        0x0 /TOOLS/software/arduino-1.6.5/hardware/tools/avr/bin/../lib/gcc/avr/4.8.1/avr6/libgcc.a(_clear_bss.o)
 .text.libgcc.builtins
                0x0000000000000000        0x0 /TOOLS/software/arduino-1.6.5/hardware/tools/avr/bin/../lib/gcc/avr/4.8.1/avr6/libgcc.a(_clear_bss.o)
 .text.libgcc.fmul
                0x0000000000000000        0x0 /TOOLS/software/arduino-1.6.5/hardware/tools/avr/bin/../lib/gcc/avr/4.8.1/avr6/libgcc.a(_clear_bss.o)
 .text.libgcc.fixed
                0x0000000000000000        0x0 /TOOLS/software/arduino-1.6.5/hardware/tools/avr/bin/../lib/gcc/avr/4.8.1/avr6/libgcc.a(_clear_bss.o)
 .text          0x0000000000000000        0x0 /TOOLS/software/arduino-1.6.5/hardware/tools/avr/bin/../lib/gcc/avr/4.8.1/avr6/libgcc.a(_ctors.o)
 .bss           0x0000000000000000        0x0 /TOOLS/software/arduino-1.6.5/hardware/tools/avr/bin/../lib/gcc/avr/4.8.1/avr6/libgcc.a(_ctors.o)
 .text.libgcc.mul
                0x0000000000000000        0x0 /TOOLS/software/arduino-1.6.5/hardware/tools/avr/bin/../lib/gcc/avr/4.8.1/avr6/libgcc.a(_ctors.o)
 .text.libgcc.div
                0x0000000000000000        0x0 /TOOLS/software/arduino-1.6.5/hardware/tools/avr/bin/../lib/gcc/avr/4.8.1/avr6/libgcc.a(_ctors.o)
 .text.libgcc   0x0000000000000000        0x0 /TOOLS/software/arduino-1.6.5/hardware/tools/avr/bin/../lib/gcc/avr/4.8.1/avr6/libgcc.a(_ctors.o)
 .text.libgcc.prologue
                0x0000000000000000        0x0 /TOOLS/software/arduino-1.6.5/hardware/tools/avr/bin/../lib/gcc/avr/4.8.1/avr6/libgcc.a(_ctors.o)
 .text.libgcc.builtins
                0x0000000000000000        0x0 /TOOLS/software/arduino-1.6.5/hardware/tools/avr/bin/../lib/gcc/avr/4.8.1/avr6/libgcc.a(_ctors.o)
 .text.libgcc.fmul
                0x0000000000000000        0x0 /TOOLS/software/arduino-1.6.5/hardware/tools/avr/bin/../lib/gcc/avr/4.8.1/avr6/libgcc.a(_ctors.o)
 .text.libgcc.fixed
                0x0000000000000000        0x0 /TOOLS/software/arduino-1.6.5/hardware/tools/avr/bin/../lib/gcc/avr/4.8.1/avr6/libgcc.a(_ctors.o)
 .text          0x0000000000000000        0x0 /TOOLS/software/arduino-1.6.5/hardware/tools/avr/bin/../lib/gcc/avr/4.8.1/avr6/libgcc.a(_dtors.o)
 .bss           0x0000000000000000        0x0 /TOOLS/software/arduino-1.6.5/hardware/tools/avr/bin/../lib/gcc/avr/4.8.1/avr6/libgcc.a(_dtors.o)
 .text.libgcc.mul
                0x0000000000000000        0x0 /TOOLS/software/arduino-1.6.5/hardware/tools/avr/bin/../lib/gcc/avr/4.8.1/avr6/libgcc.a(_dtors.o)
 .text.libgcc.div
                0x0000000000000000        0x0 /TOOLS/software/arduino-1.6.5/hardware/tools/avr/bin/../lib/gcc/avr/4.8.1/avr6/libgcc.a(_dtors.o)
 .text.libgcc   0x0000000000000000        0x0 /TOOLS/software/arduino-1.6.5/hardware/tools/avr/bin/../lib/gcc/avr/4.8.1/avr6/libgcc.a(_dtors.o)
 .text.libgcc.prologue
                0x0000000000000000        0x0 /TOOLS/software/arduino-1.6.5/hardware/tools/avr/bin/../lib/gcc/avr/4.8.1/avr6/libgcc.a(_dtors.o)
 .text.libgcc.builtins
                0x0000000000000000        0x0 /TOOLS/software/arduino-1.6.5/hardware/tools/avr/bin/../lib/gcc/avr/4.8.1/avr6/libgcc.a(_dtors.o)
 .text.libgcc.fmul
                0x0000000000000000        0x0 /TOOLS/software/arduino-1.6.5/hardware/tools/avr/bin/../lib/gcc/avr/4.8.1/avr6/libgcc.a(_dtors.o)
 .text.libgcc.fixed
                0x0000000000000000        0x0 /TOOLS/software/arduino-1.6.5/hardware/tools/avr/bin/../lib/gcc/avr/4.8.1/avr6/libgcc.a(_dtors.o)
 .text          0x0000000000000000        0x0 /TOOLS/software/arduino-1.6.5/hardware/tools/avr/bin/../lib/gcc/avr/4.8.1/avr6/libgcc.a(_muluhisi3.o)
 .bss           0x0000000000000000        0x0 /TOOLS/software/arduino-1.6.5/hardware/tools/avr/bin/../lib/gcc/avr/4.8.1/avr6/libgcc.a(_muluhisi3.o)
 .text.libgcc.div
                0x0000000000000000        0x0 /TOOLS/software/arduino-1.6.5/hardware/tools/avr/bin/../lib/gcc/avr/4.8.1/avr6/libgcc.a(_muluhisi3.o)
 .text.libgcc   0x0000000000000000        0x0 /TOOLS/software/arduino-1.6.5/hardware/tools/avr/bin/../lib/gcc/avr/4.8.1/avr6/libgcc.a(_muluhisi3.o)
 .text.libgcc.prologue
                0x0000000000000000        0x0 /TOOLS/software/arduino-1.6.5/hardware/tools/avr/bin/../lib/gcc/avr/4.8.1/avr6/libgcc.a(_muluhisi3.o)
 .text.libgcc.builtins
                0x0000000000000000        0x0 /TOOLS/software/arduino-1.6.5/hardware/tools/avr/bin/../lib/gcc/avr/4.8.1/avr6/libgcc.a(_muluhisi3.o)
 .text.libgcc.fmul
                0x0000000000000000        0x0 /TOOLS/software/arduino-1.6.5/hardware/tools/avr/bin/../lib/gcc/avr/4.8.1/avr6/libgcc.a(_muluhisi3.o)
 .text.libgcc.fixed
                0x0000000000000000        0x0 /TOOLS/software/arduino-1.6.5/hardware/tools/avr/bin/../lib/gcc/avr/4.8.1/avr6/libgcc.a(_muluhisi3.o)
 .text          0x0000000000000000        0x0 /TOOLS/software/arduino-1.6.5/hardware/tools/avr/bin/../lib/gcc/avr/4.8.1/avr6/libgcc.a(_tablejump_elpm.o)
 .bss           0x0000000000000000        0x0 /TOOLS/software/arduino-1.6.5/hardware/tools/avr/bin/../lib/gcc/avr/4.8.1/avr6/libgcc.a(_tablejump_elpm.o)
 .text.libgcc.mul
                0x0000000000000000        0x0 /TOOLS/software/arduino-1.6.5/hardware/tools/avr/bin/../lib/gcc/avr/4.8.1/avr6/libgcc.a(_tablejump_elpm.o)
 .text.libgcc.div
                0x0000000000000000        0x0 /TOOLS/software/arduino-1.6.5/hardware/tools/avr/bin/../lib/gcc/avr/4.8.1/avr6/libgcc.a(_tablejump_elpm.o)
 .text.libgcc.prologue
                0x0000000000000000        0x0 /TOOLS/software/arduino-1.6.5/hardware/tools/avr/bin/../lib/gcc/avr/4.8.1/avr6/libgcc.a(_tablejump_elpm.o)
 .text.libgcc.builtins
                0x0000000000000000        0x0 /TOOLS/software/arduino-1.6.5/hardware/tools/avr/bin/../lib/gcc/avr/4.8.1/avr6/libgcc.a(_tablejump_elpm.o)
 .text.libgcc.fmul
                0x0000000000000000        0x0 /TOOLS/software/arduino-1.6.5/hardware/tools/avr/bin/../lib/gcc/avr/4.8.1/avr6/libgcc.a(_tablejump_elpm.o)
 .text.libgcc.fixed
                0x0000000000000000        0x0 /TOOLS/software/arduino-1.6.5/hardware/tools/avr/bin/../lib/gcc/avr/4.8.1/avr6/libgcc.a(_tablejump_elpm.o)
 .text          0x0000000000000000        0x0 /TOOLS/software/arduino-1.6.5/hardware/tools/avr/bin/../lib/gcc/avr/4.8.1/avr6/libgcc.a(_udivmodhi4.o)
 .bss           0x0000000000000000        0x0 /TOOLS/software/arduino-1.6.5/hardware/tools/avr/bin/../lib/gcc/avr/4.8.1/avr6/libgcc.a(_udivmodhi4.o)
 .text.libgcc.mul
                0x0000000000000000        0x0 /TOOLS/software/arduino-1.6.5/hardware/tools/avr/bin/../lib/gcc/avr/4.8.1/avr6/libgcc.a(_udivmodhi4.o)
 .text.libgcc   0x0000000000000000        0x0 /TOOLS/software/arduino-1.6.5/hardware/tools/avr/bin/../lib/gcc/avr/4.8.1/avr6/libgcc.a(_udivmodhi4.o)
 .text.libgcc.prologue
                0x0000000000000000        0x0 /TOOLS/software/arduino-1.6.5/hardware/tools/avr/bin/../lib/gcc/avr/4.8.1/avr6/libgcc.a(_udivmodhi4.o)
 .text.libgcc.builtins
                0x0000000000000000        0x0 /TOOLS/software/arduino-1.6.5/hardware/tools/avr/bin/../lib/gcc/avr/4.8.1/avr6/libgcc.a(_udivmodhi4.o)
 .text.libgcc.fmul
                0x0000000000000000        0x0 /TOOLS/software/arduino-1.6.5/hardware/tools/avr/bin/../lib/gcc/avr/4.8.1/avr6/libgcc.a(_udivmodhi4.o)
 .text.libgcc.fixed
                0x0000000000000000        0x0 /TOOLS/software/arduino-1.6.5/hardware/tools/avr/bin/../lib/gcc/avr/4.8.1/avr6/libgcc.a(_udivmodhi4.o)
 .text          0x0000000000000000        0x0 /TOOLS/software/arduino-1.6.5/hardware/tools/avr/bin/../lib/gcc/avr/4.8.1/avr6/libgcc.a(_umulhisi3.o)
 .bss           0x0000000000000000        0x0 /TOOLS/software/arduino-1.6.5/hardware/tools/avr/bin/../lib/gcc/avr/4.8.1/avr6/libgcc.a(_umulhisi3.o)
 .text.libgcc.div
                0x0000000000000000        0x0 /TOOLS/software/arduino-1.6.5/hardware/tools/avr/bin/../lib/gcc/avr/4.8.1/avr6/libgcc.a(_umulhisi3.o)
 .text.libgcc   0x0000000000000000        0x0 /TOOLS/software/arduino-1.6.5/hardware/tools/avr/bin/../lib/gcc/avr/4.8.1/avr6/libgcc.a(_umulhisi3.o)
 .text.libgcc.prologue
                0x0000000000000000        0x0 /TOOLS/software/arduino-1.6.5/hardware/tools/avr/bin/../lib/gcc/avr/4.8.1/avr6/libgcc.a(_umulhisi3.o)
 .text.libgcc.builtins
                0x0000000000000000        0x0 /TOOLS/software/arduino-1.6.5/hardware/tools/avr/bin/../lib/gcc/avr/4.8.1/avr6/libgcc.a(_umulhisi3.o)
 .text.libgcc.fmul
                0x0000000000000000        0x0 /TOOLS/software/arduino-1.6.5/hardware/tools/avr/bin/../lib/gcc/avr/4.8.1/avr6/libgcc.a(_umulhisi3.o)
 .text.libgcc.fixed
                0x0000000000000000        0x0 /TOOLS/software/arduino-1.6.5/hardware/tools/avr/bin/../lib/gcc/avr/4.8.1/avr6/libgcc.a(_umulhisi3.o)
 .text          0x0000000000000000        0x0 /TOOLS/software/arduino-1.6.5/hardware/tools/avr/bin/../lib/gcc/avr/4.8.1/../../../../avr/lib/avr6/libm.a(addsf3.o)
 .bss           0x0000000000000000        0x0 /TOOLS/software/arduino-1.6.5/hardware/tools/avr/bin/../lib/gcc/avr/4.8.1/../../../../avr/lib/avr6/libm.a(addsf3.o)
 .text.avr-libc.fplib
                0x0000000000000000        0xa /TOOLS/software/arduino-1.6.5/hardware/tools/avr/bin/../lib/gcc/avr/4.8.1/../../../../avr/lib/avr6/libm.a(addsf3.o)
 .text          0x0000000000000000        0x0 /TOOLS/software/arduino-1.6.5/hardware/tools/avr/bin/../lib/gcc/avr/4.8.1/../../../../avr/lib/avr6/libm.a(addsf3x.o)
 .bss           0x0000000000000000        0x0 /TOOLS/software/arduino-1.6.5/hardware/tools/avr/bin/../lib/gcc/avr/4.8.1/../../../../avr/lib/avr6/libm.a(addsf3x.o)
 .text.avr-libc.fplib
                0x0000000000000000       0xc0 /TOOLS/software/arduino-1.6.5/hardware/tools/avr/bin/../lib/gcc/avr/4.8.1/../../../../avr/lib/avr6/libm.a(addsf3x.o)
 .text          0x0000000000000000        0x0 /TOOLS/software/arduino-1.6.5/hardware/tools/avr/bin/../lib/gcc/avr/4.8.1/../../../../avr/lib/avr6/libm.a(cmpsf2.o)
 .bss           0x0000000000000000        0x0 /TOOLS/software/arduino-1.6.5/hardware/tools/avr/bin/../lib/gcc/avr/4.8.1/../../../../avr/lib/avr6/libm.a(cmpsf2.o)
 .text.avr-libc.fplib
                0x0000000000000000        0x8 /TOOLS/software/arduino-1.6.5/hardware/tools/avr/bin/../lib/gcc/avr/4.8.1/../../../../avr/lib/avr6/libm.a(cmpsf2.o)
 .text          0x0000000000000000        0x0 /TOOLS/software/arduino-1.6.5/hardware/tools/avr/bin/../lib/gcc/avr/4.8.1/../../../../avr/lib/avr6/libm.a(divsf3.o)
 .bss           0x0000000000000000        0x0 /TOOLS/software/arduino-1.6.5/hardware/tools/avr/bin/../lib/gcc/avr/4.8.1/../../../../avr/lib/avr6/libm.a(divsf3.o)
 .text.avr-libc.fplib
                0x0000000000000000        0x4 /TOOLS/software/arduino-1.6.5/hardware/tools/avr/bin/../lib/gcc/avr/4.8.1/../../../../avr/lib/avr6/libm.a(divsf3.o)
 .text          0x0000000000000000        0x0 /TOOLS/software/arduino-1.6.5/hardware/tools/avr/bin/../lib/gcc/avr/4.8.1/../../../../avr/lib/avr6/libm.a(divsf3x.o)
 .bss           0x0000000000000000        0x0 /TOOLS/software/arduino-1.6.5/hardware/tools/avr/bin/../lib/gcc/avr/4.8.1/../../../../avr/lib/avr6/libm.a(divsf3x.o)
 .text.avr-libc.fplib
                0x0000000000000000       0xcc /TOOLS/software/arduino-1.6.5/hardware/tools/avr/bin/../lib/gcc/avr/4.8.1/../../../../avr/lib/avr6/libm.a(divsf3x.o)
 .text          0x0000000000000000        0x0 /TOOLS/software/arduino-1.6.5/hardware/tools/avr/bin/../lib/gcc/avr/4.8.1/../../../../avr/lib/avr6/libm.a(fixsfsi.o)
 .bss           0x0000000000000000        0x0 /TOOLS/software/arduino-1.6.5/hardware/tools/avr/bin/../lib/gcc/avr/4.8.1/../../../../avr/lib/avr6/libm.a(fixsfsi.o)
 .text.avr-libc.fplib
                0x0000000000000000        0xa /TOOLS/software/arduino-1.6.5/hardware/tools/avr/bin/../lib/gcc/avr/4.8.1/../../../../avr/lib/avr6/libm.a(fixsfsi.o)
 .text          0x0000000000000000        0x0 /TOOLS/software/arduino-1.6.5/hardware/tools/avr/bin/../lib/gcc/avr/4.8.1/../../../../avr/lib/avr6/libm.a(fixunssfsi.o)
 .bss           0x0000000000000000        0x0 /TOOLS/software/arduino-1.6.5/hardware/tools/avr/bin/../lib/gcc/avr/4.8.1/../../../../avr/lib/avr6/libm.a(fixunssfsi.o)
 .text.avr-libc.fplib
                0x0000000000000000       0x58 /TOOLS/software/arduino-1.6.5/hardware/tools/avr/bin/../lib/gcc/avr/4.8.1/../../../../avr/lib/avr6/libm.a(fixunssfsi.o)
 .text          0x0000000000000000        0x0 /TOOLS/software/arduino-1.6.5/hardware/tools/avr/bin/../lib/gcc/avr/4.8.1/../../../../avr/lib/avr6/libm.a(floatsisf.o)
 .bss           0x0000000000000000        0x0 /TOOLS/software/arduino-1.6.5/hardware/tools/avr/bin/../lib/gcc/avr/4.8.1/../../../../avr/lib/avr6/libm.a(floatsisf.o)
 .text.avr-libc.fplib
                0x0000000000000000       0x7a /TOOLS/software/arduino-1.6.5/hardware/tools/avr/bin/../lib/gcc/avr/4.8.1/../../../../avr/lib/avr6/libm.a(floatsisf.o)
 .text          0x0000000000000000        0x0 /TOOLS/software/arduino-1.6.5/hardware/tools/avr/bin/../lib/gcc/avr/4.8.1/../../../../avr/lib/avr6/libm.a(fp_cmp.o)
 .bss           0x0000000000000000        0x0 /TOOLS/software/arduino-1.6.5/hardware/tools/avr/bin/../lib/gcc/avr/4.8.1/../../../../avr/lib/avr6/libm.a(fp_cmp.o)
 .text.avr-libc.fplib
                0x0000000000000000       0x48 /TOOLS/software/arduino-1.6.5/hardware/tools/avr/bin/../lib/gcc/avr/4.8.1/../../../../avr/lib/avr6/libm.a(fp_cmp.o)
 .text          0x0000000000000000        0x0 /TOOLS/software/arduino-1.6.5/hardware/tools/avr/bin/../lib/gcc/avr/4.8.1/../../../../avr/lib/avr6/libm.a(fp_inf.o)
 .bss           0x0000000000000000        0x0 /TOOLS/software/arduino-1.6.5/hardware/tools/avr/bin/../lib/gcc/avr/4.8.1/../../../../avr/lib/avr6/libm.a(fp_inf.o)
 .text.avr-libc.fplib
                0x0000000000000000        0xc /TOOLS/software/arduino-1.6.5/hardware/tools/avr/bin/../lib/gcc/avr/4.8.1/../../../../avr/lib/avr6/libm.a(fp_inf.o)
 .text          0x0000000000000000        0x0 /TOOLS/software/arduino-1.6.5/hardware/tools/avr/bin/../lib/gcc/avr/4.8.1/../../../../avr/lib/avr6/libm.a(fp_nan.o)
 .bss           0x0000000000000000        0x0 /TOOLS/software/arduino-1.6.5/hardware/tools/avr/bin/../lib/gcc/avr/4.8.1/../../../../avr/lib/avr6/libm.a(fp_nan.o)
 .text.avr-libc.fplib
                0x0000000000000000        0x6 /TOOLS/software/arduino-1.6.5/hardware/tools/avr/bin/../lib/gcc/avr/4.8.1/../../../../avr/lib/avr6/libm.a(fp_nan.o)
 .text          0x0000000000000000        0x0 /TOOLS/software/arduino-1.6.5/hardware/tools/avr/bin/../lib/gcc/avr/4.8.1/../../../../avr/lib/avr6/libm.a(fp_pscA.o)
 .bss           0x0000000000000000        0x0 /TOOLS/software/arduino-1.6.5/hardware/tools/avr/bin/../lib/gcc/avr/4.8.1/../../../../avr/lib/avr6/libm.a(fp_pscA.o)
 .text.avr-libc.fplib
                0x0000000000000000        0xe /TOOLS/software/arduino-1.6.5/hardware/tools/avr/bin/../lib/gcc/avr/4.8.1/../../../../avr/lib/avr6/libm.a(fp_pscA.o)
 .text          0x0000000000000000        0x0 /TOOLS/software/arduino-1.6.5/hardware/tools/avr/bin/../lib/gcc/avr/4.8.1/../../../../avr/lib/avr6/libm.a(fp_pscB.o)
 .bss           0x0000000000000000        0x0 /TOOLS/software/arduino-1.6.5/hardware/tools/avr/bin/../lib/gcc/avr/4.8.1/../../../../avr/lib/avr6/libm.a(fp_pscB.o)
 .text.avr-libc.fplib
                0x0000000000000000        0xe /TOOLS/software/arduino-1.6.5/hardware/tools/avr/bin/../lib/gcc/avr/4.8.1/../../../../avr/lib/avr6/libm.a(fp_pscB.o)
 .text          0x0000000000000000        0x0 /TOOLS/software/arduino-1.6.5/hardware/tools/avr/bin/../lib/gcc/avr/4.8.1/../../../../avr/lib/avr6/libm.a(fp_round.o)
 .bss           0x0000000000000000        0x0 /TOOLS/software/arduino-1.6.5/hardware/tools/avr/bin/../lib/gcc/avr/4.8.1/../../../../avr/lib/avr6/libm.a(fp_round.o)
 .text.avr-libc.fplib
                0x0000000000000000       0x22 /TOOLS/software/arduino-1.6.5/hardware/tools/avr/bin/../lib/gcc/avr/4.8.1/../../../../avr/lib/avr6/libm.a(fp_round.o)
 .text          0x0000000000000000        0x0 /TOOLS/software/arduino-1.6.5/hardware/tools/avr/bin/../lib/gcc/avr/4.8.1/../../../../avr/lib/avr6/libm.a(fp_split3.o)
 .bss           0x0000000000000000        0x0 /TOOLS/software/arduino-1.6.5/hardware/tools/avr/bin/../lib/gcc/avr/4.8.1/../../../../avr/lib/avr6/libm.a(fp_split3.o)
 .text.avr-libc.fplib
                0x0000000000000000       0x44 /TOOLS/software/arduino-1.6.5/hardware/tools/avr/bin/../lib/gcc/avr/4.8.1/../../../../avr/lib/avr6/libm.a(fp_split3.o)
 .text          0x0000000000000000        0x0 /TOOLS/software/arduino-1.6.5/hardware/tools/avr/bin/../lib/gcc/avr/4.8.1/../../../../avr/lib/avr6/libm.a(fp_zero.o)
 .bss           0x0000000000000000        0x0 /TOOLS/software/arduino-1.6.5/hardware/tools/avr/bin/../lib/gcc/avr/4.8.1/../../../../avr/lib/avr6/libm.a(fp_zero.o)
 .text.avr-libc.fplib
                0x0000000000000000        0xe /TOOLS/software/arduino-1.6.5/hardware/tools/avr/bin/../lib/gcc/avr/4.8.1/../../../../avr/lib/avr6/libm.a(fp_zero.o)
 .text          0x0000000000000000        0x0 /TOOLS/software/arduino-1.6.5/hardware/tools/avr/bin/../lib/gcc/avr/4.8.1/../../../../avr/lib/avr6/libm.a(gesf2.o)
 .bss           0x0000000000000000        0x0 /TOOLS/software/arduino-1.6.5/hardware/tools/avr/bin/../lib/gcc/avr/4.8.1/../../../../avr/lib/avr6/libm.a(gesf2.o)
 .text.avr-libc.fplib
                0x0000000000000000        0x8 /TOOLS/software/arduino-1.6.5/hardware/tools/avr/bin/../lib/gcc/avr/4.8.1/../../../../avr/lib/avr6/libm.a(gesf2.o)
 .text          0x0000000000000000        0x0 /TOOLS/software/arduino-1.6.5/hardware/tools/avr/bin/../lib/gcc/avr/4.8.1/../../../../avr/lib/avr6/libm.a(mulsf3.o)
 .bss           0x0000000000000000        0x0 /TOOLS/software/arduino-1.6.5/hardware/tools/avr/bin/../lib/gcc/avr/4.8.1/../../../../avr/lib/avr6/libm.a(mulsf3.o)
 .text.avr-libc.fplib
                0x0000000000000000        0x4 /TOOLS/software/arduino-1.6.5/hardware/tools/avr/bin/../lib/gcc/avr/4.8.1/../../../../avr/lib/avr6/libm.a(mulsf3.o)
 .text          0x0000000000000000        0x0 /TOOLS/software/arduino-1.6.5/hardware/tools/avr/bin/../lib/gcc/avr/4.8.1/../../../../avr/lib/avr6/libm.a(mulsf3x.o)
 .bss           0x0000000000000000        0x0 /TOOLS/software/arduino-1.6.5/hardware/tools/avr/bin/../lib/gcc/avr/4.8.1/../../../../avr/lib/avr6/libm.a(mulsf3x.o)
 .text.avr-libc.fplib
                0x0000000000000000       0xc2 /TOOLS/software/arduino-1.6.5/hardware/tools/avr/bin/../lib/gcc/avr/4.8.1/../../../../avr/lib/avr6/libm.a(mulsf3x.o)
 .text          0x0000000000000000        0x0 /TOOLS/software/arduino-1.6.5/hardware/tools/avr/bin/../lib/gcc/avr/4.8.1/../../../../avr/lib/avr6/libm.a(unordsf2.o)
 .bss           0x0000000000000000        0x0 /TOOLS/software/arduino-1.6.5/hardware/tools/avr/bin/../lib/gcc/avr/4.8.1/../../../../avr/lib/avr6/libm.a(unordsf2.o)
 .text.avr-libc.fplib
                0x0000000000000000        0x8 /TOOLS/software/arduino-1.6.5/hardware/tools/avr/bin/../lib/gcc/avr/4.8.1/../../../../avr/lib/avr6/libm.a(unordsf2.o)
 .text          0x0000000000000000        0x0 /TOOLS/software/arduino-1.6.5/hardware/tools/avr/bin/../lib/gcc/avr/4.8.1/../../../../avr/lib/avr6/libc.a(malloc.o)
 .bss           0x0000000000000000        0x0 /TOOLS/software/arduino-1.6.5/hardware/tools/avr/bin/../lib/gcc/avr/4.8.1/../../../../avr/lib/avr6/libc.a(malloc.o)
 .text.avr-libc
                0x0000000000000000      0x24e /TOOLS/software/arduino-1.6.5/hardware/tools/avr/bin/../lib/gcc/avr/4.8.1/../../../../avr/lib/avr6/libc.a(malloc.o)
 COMMON         0x0000000000000000        0x4 /TOOLS/software/arduino-1.6.5/hardware/tools/avr/bin/../lib/gcc/avr/4.8.1/../../../../avr/lib/avr6/libc.a(malloc.o)
 .text          0x0000000000000000        0x0 /TOOLS/software/arduino-1.6.5/hardware/tools/avr/bin/../lib/gcc/avr/4.8.1/../../../../avr/lib/avr6/libc.a(abort.o)
 .bss           0x0000000000000000        0x0 /TOOLS/software/arduino-1.6.5/hardware/tools/avr/bin/../lib/gcc/avr/4.8.1/../../../../avr/lib/avr6/libc.a(abort.o)
 .text.avr-libc
                0x0000000000000000        0xa /TOOLS/software/arduino-1.6.5/hardware/tools/avr/bin/../lib/gcc/avr/4.8.1/../../../../avr/lib/avr6/libc.a(abort.o)
 .text          0x0000000000000000        0x0 /TOOLS/software/arduino-1.6.5/hardware/tools/avr/bin/../lib/gcc/avr/4.8.1/../../../../avr/lib/avr6/libc.a(memcmp.o)
 .bss           0x0000000000000000        0x0 /TOOLS/software/arduino-1.6.5/hardware/tools/avr/bin/../lib/gcc/avr/4.8.1/../../../../avr/lib/avr6/libc.a(memcmp.o)
 .text.avr-libc
                0x0000000000000000       0x1a /TOOLS/software/arduino-1.6.5/hardware/tools/avr/bin/../lib/gcc/avr/4.8.1/../../../../avr/lib/avr6/libc.a(memcmp.o)
 .text          0x0000000000000000        0x0 /TOOLS/software/arduino-1.6.5/hardware/tools/avr/bin/../lib/gcc/avr/4.8.1/../../../../avr/lib/avr6/libc.a(strchr.o)
 .bss           0x0000000000000000        0x0 /TOOLS/software/arduino-1.6.5/hardware/tools/avr/bin/../lib/gcc/avr/4.8.1/../../../../avr/lib/avr6/libc.a(strchr.o)
 .text.avr-libc
                0x0000000000000000       0x16 /TOOLS/software/arduino-1.6.5/hardware/tools/avr/bin/../lib/gcc/avr/4.8.1/../../../../avr/lib/avr6/libc.a(strchr.o)
 .text          0x0000000000000000        0x0 /TOOLS/software/arduino-1.6.5/hardware/tools/avr/bin/../lib/gcc/avr/4.8.1/../../../../avr/lib/avr6/libc.a(strncpy.o)
 .bss           0x0000000000000000        0x0 /TOOLS/software/arduino-1.6.5/hardware/tools/avr/bin/../lib/gcc/avr/4.8.1/../../../../avr/lib/avr6/libc.a(strncpy.o)
 .text.avr-libc
                0x0000000000000000       0x1e /TOOLS/software/arduino-1.6.5/hardware/tools/avr/bin/../lib/gcc/avr/4.8.1/../../../../avr/lib/avr6/libc.a(strncpy.o)

Memory Configuration

Name             Origin             Length             Attributes
text             0x0000000000000000 0x0000000000100000 xr
data             0x0000000000800200 0x000000000000fe00 rw !x
eeprom           0x0000000000810000 0x0000000000010000 rw !x
fuse             0x0000000000820000 0x0000000000000400 rw !x
lock             0x0000000000830000 0x0000000000000400 rw !x
signature        0x0000000000840000 0x0000000000000400 rw !x
*default*        0x0000000000000000 0xffffffffffffffff

Linker script and memory map

Address of section .data set to 0x800200
LOAD /TOOLS/software/arduino-1.6.5/hardware/tools/avr/bin/../lib/gcc/avr/4.8.1/../../../../avr/lib/avr6/crtm2560.o
LOAD /TOOLS/software/arduino-1.6.5/hardware/tools/avr/bin/../lib/gcc/avr/4.8.1/../../../../avr/lib/avr6/libm.a
LOAD ./src/SmartCarPark.o
LOAD /ICESX/workSpaceC/SmartCarPark/product/code/frontend/dev/SmartCarParkFront-Lib-Mine/ATMEGA_LIB/libSmartCarParkFront-Lib-Mine.a
LOAD /ICESX/workSpaceC/SmartCarPark/product/code/frontend/dev/SmartCarParkFront-Lib/ATMEGA_LIB/libSmartCarParkFront-Lib.a
START GROUP
LOAD /TOOLS/software/arduino-1.6.5/hardware/tools/avr/bin/../lib/gcc/avr/4.8.1/avr6/libgcc.a
LOAD /TOOLS/software/arduino-1.6.5/hardware/tools/avr/bin/../lib/gcc/avr/4.8.1/../../../../avr/lib/avr6/libm.a
LOAD /TOOLS/software/arduino-1.6.5/hardware/tools/avr/bin/../lib/gcc/avr/4.8.1/../../../../avr/lib/avr6/libc.a
END GROUP

.hash
 *(.hash)

.dynsym
 *(.dynsym)

.dynstr
 *(.dynstr)

.gnu.version
 *(.gnu.version)

.gnu.version_d
 *(.gnu.version_d)

.gnu.version_r
 *(.gnu.version_r)

.rel.init
 *(.rel.init)

.rela.init
 *(.rela.init)

.rel.text
 *(.rel.text)
 *(.rel.text.*)
 *(.rel.gnu.linkonce.t*)

.rela.text
 *(.rela.text)
 *(.rela.text.*)
 *(.rela.gnu.linkonce.t*)

.rel.fini
 *(.rel.fini)

.rela.fini
 *(.rela.fini)

.rel.rodata
 *(.rel.rodata)
 *(.rel.rodata.*)
 *(.rel.gnu.linkonce.r*)

.rela.rodata
 *(.rela.rodata)
 *(.rela.rodata.*)
 *(.rela.gnu.linkonce.r*)

.rel.data
 *(.rel.data)
 *(.rel.data.*)
 *(.rel.gnu.linkonce.d*)

.rela.data
 *(.rela.data)
 *(.rela.data.*)
 *(.rela.gnu.linkonce.d*)

.rel.ctors
 *(.rel.ctors)

.rela.ctors
 *(.rela.ctors)

.rel.dtors
 *(.rel.dtors)

.rela.dtors
 *(.rela.dtors)

.rel.got
 *(.rel.got)

.rela.got
 *(.rela.got)

.rel.bss
 *(.rel.bss)

.rela.bss
 *(.rela.bss)

.rel.plt
 *(.rel.plt)

.rela.plt
 *(.rela.plt)

.text           0x0000000000000000     0x3742
 *(.vectors)
 .vectors       0x0000000000000000       0xe4 /TOOLS/software/arduino-1.6.5/hardware/tools/avr/bin/../lib/gcc/avr/4.8.1/../../../../avr/lib/avr6/crtm2560.o
                0x0000000000000000                __vectors
                0x0000000000000000                __vector_default
 *(.vectors)
 *(.progmem.gcc*)
 .progmem.gcc_sw_table.turnOffPWM
                0x00000000000000e4       0x24 /ICESX/workSpaceC/SmartCarPark/product/code/frontend/dev/SmartCarParkFront-Lib/ATMEGA_LIB/libSmartCarParkFront-Lib.a(wiring_digital.o)
                0x0000000000000108                . = ALIGN (0x2)
                0x0000000000000108                __trampolines_start = .
 *(.trampolines)
 .trampolines   0x0000000000000108        0x0 linker stubs
 *(.trampolines*)
                0x0000000000000108                __trampolines_end = .
 *(.progmem*)
 .progmem.data.digital_pin_to_timer_PGM
                0x0000000000000108       0x46 /ICESX/workSpaceC/SmartCarPark/product/code/frontend/dev/SmartCarParkFront-Lib/ATMEGA_LIB/libSmartCarParkFront-Lib.a(wiring_digital.o)
                0x0000000000000108                digital_pin_to_timer_PGM
 .progmem.data.digital_pin_to_bit_mask_PGM
                0x000000000000014e       0x46 /ICESX/workSpaceC/SmartCarPark/product/code/frontend/dev/SmartCarParkFront-Lib/ATMEGA_LIB/libSmartCarParkFront-Lib.a(wiring_digital.o)
                0x000000000000014e                digital_pin_to_bit_mask_PGM
 .progmem.data.digital_pin_to_port_PGM
                0x0000000000000194       0x46 /ICESX/workSpaceC/SmartCarPark/product/code/frontend/dev/SmartCarParkFront-Lib/ATMEGA_LIB/libSmartCarParkFront-Lib.a(wiring_digital.o)
                0x0000000000000194                digital_pin_to_port_PGM
 .progmem.data.port_to_input_PGM
                0x00000000000001da       0x1a /ICESX/workSpaceC/SmartCarPark/product/code/frontend/dev/SmartCarParkFront-Lib/ATMEGA_LIB/libSmartCarParkFront-Lib.a(wiring_digital.o)
                0x00000000000001da                port_to_input_PGM
 .progmem.data.port_to_output_PGM
                0x00000000000001f4       0x1a /ICESX/workSpaceC/SmartCarPark/product/code/frontend/dev/SmartCarParkFront-Lib/ATMEGA_LIB/libSmartCarParkFront-Lib.a(wiring_digital.o)
                0x00000000000001f4                port_to_output_PGM
 .progmem.data.port_to_mode_PGM
                0x000000000000020e       0x1a /ICESX/workSpaceC/SmartCarPark/product/code/frontend/dev/SmartCarParkFront-Lib/ATMEGA_LIB/libSmartCarParkFront-Lib.a(wiring_digital.o)
                0x000000000000020e                port_to_mode_PGM
                0x0000000000000228                . = ALIGN (0x2)
 *(.jumptables)
 *(.jumptables*)
 *(.lowtext)
 *(.lowtext*)
                0x0000000000000228                __ctors_start = .
 *(.ctors)
 .ctors         0x0000000000000228        0x2 ./src/SmartCarPark.o
 .ctors         0x000000000000022a        0x2 /ICESX/workSpaceC/SmartCarPark/product/code/frontend/dev/SmartCarParkFront-Lib/ATMEGA_LIB/libSmartCarParkFront-Lib.a(HardwareSerial0.o)
 .ctors         0x000000000000022c        0x2 /ICESX/workSpaceC/SmartCarPark/product/code/frontend/dev/SmartCarParkFront-Lib/ATMEGA_LIB/libSmartCarParkFront-Lib.a(IPAddress.o)
 .ctors         0x000000000000022e        0x2 /ICESX/workSpaceC/SmartCarPark/product/code/frontend/dev/SmartCarParkFront-Lib/ATMEGA_LIB/libSmartCarParkFront-Lib.a(Sd2Card.o)
 .ctors         0x0000000000000230        0x2 /ICESX/workSpaceC/SmartCarPark/product/code/frontend/dev/SmartCarParkFront-Lib/ATMEGA_LIB/libSmartCarParkFront-Lib.a(SD.o)
                0x0000000000000232                __ctors_end = .
                0x0000000000000232                __dtors_start = .
 *(.dtors)
 .dtors         0x0000000000000232        0x2 ./src/SmartCarPark.o
                0x0000000000000234                __dtors_end = .
 SORT(*)(.ctors)
 SORT(*)(.dtors)
 *(.init0)
 .init0         0x0000000000000234        0x0 /TOOLS/software/arduino-1.6.5/hardware/tools/avr/bin/../lib/gcc/avr/4.8.1/../../../../avr/lib/avr6/crtm2560.o
                0x0000000000000234                __init
 *(.init0)
 *(.init1)
 *(.init1)
 *(.init2)
 .init2         0x0000000000000234       0x10 /TOOLS/software/arduino-1.6.5/hardware/tools/avr/bin/../lib/gcc/avr/4.8.1/../../../../avr/lib/avr6/crtm2560.o
 *(.init2)
 *(.init3)
 *(.init3)
 *(.init4)
 .init4         0x0000000000000244       0x1a /TOOLS/software/arduino-1.6.5/hardware/tools/avr/bin/../lib/gcc/avr/4.8.1/avr6/libgcc.a(_copy_data.o)
                0x0000000000000244                __do_copy_data
 .init4         0x000000000000025e       0x10 /TOOLS/software/arduino-1.6.5/hardware/tools/avr/bin/../lib/gcc/avr/4.8.1/avr6/libgcc.a(_clear_bss.o)
                0x000000000000025e                __do_clear_bss
 *(.init4)
 *(.init5)
 *(.init5)
 *(.init6)
 .init6         0x000000000000026e       0x20 /TOOLS/software/arduino-1.6.5/hardware/tools/avr/bin/../lib/gcc/avr/4.8.1/avr6/libgcc.a(_ctors.o)
                0x000000000000026e                __do_global_ctors
 *(.init6)
 *(.init7)
 *(.init7)
 *(.init8)
 *(.init8)
 *(.init9)
 .init9         0x000000000000028e        0x6 /TOOLS/software/arduino-1.6.5/hardware/tools/avr/bin/../lib/gcc/avr/4.8.1/../../../../avr/lib/avr6/crtm2560.o
 *(.init9)
 *(.text)
 .text          0x0000000000000294        0x2 /TOOLS/software/arduino-1.6.5/hardware/tools/avr/bin/../lib/gcc/avr/4.8.1/../../../../avr/lib/avr6/crtm2560.o
                0x0000000000000294                __vector_38
                0x0000000000000294                __vector_22
                0x0000000000000294                __vector_28
                0x0000000000000294                __vector_1
                0x0000000000000294                __vector_32
                0x0000000000000294                __vector_34
                0x0000000000000294                __vector_24
                0x0000000000000294                __vector_12
                0x0000000000000294                __vector_55
                0x0000000000000294                __vector_46
                0x0000000000000294                __bad_interrupt
                0x0000000000000294                __vector_6
                0x0000000000000294                __vector_31
                0x0000000000000294                __vector_35
                0x0000000000000294                __vector_39
                0x0000000000000294                __vector_3
                0x0000000000000294                __vector_30
                0x0000000000000294                __vector_45
                0x0000000000000294                __vector_54
                0x0000000000000294                __vector_13
                0x0000000000000294                __vector_17
                0x0000000000000294                __vector_19
                0x0000000000000294                __vector_56
                0x0000000000000294                __vector_7
                0x0000000000000294                __vector_49
                0x0000000000000294                __vector_41
                0x0000000000000294                __vector_43
                0x0000000000000294                __vector_27
                0x0000000000000294                __vector_5
                0x0000000000000294                __vector_33
                0x0000000000000294                __vector_47
                0x0000000000000294                __vector_52
                0x0000000000000294                __vector_37
                0x0000000000000294                __vector_4
                0x0000000000000294                __vector_44
                0x0000000000000294                __vector_51
                0x0000000000000294                __vector_2
                0x0000000000000294                __vector_21
                0x0000000000000294                __vector_15
                0x0000000000000294                __vector_36
                0x0000000000000294                __vector_29
                0x0000000000000294                __vector_40
                0x0000000000000294                __vector_8
                0x0000000000000294                __vector_48
                0x0000000000000294                __vector_14
                0x0000000000000294                __vector_53
                0x0000000000000294                __vector_50
                0x0000000000000294                __vector_16
                0x0000000000000294                __vector_18
                0x0000000000000294                __vector_20
                0x0000000000000294                __vector_42
                0x0000000000000296                . = ALIGN (0x2)
 *(.text.*)
 .text._Z6pownonv
                0x0000000000000296       0x4c ./src/SmartCarPark.o
                0x0000000000000296                _Z6pownonv
 .text._Z12startSim900av
                0x00000000000002e2       0x26 ./src/SmartCarPark.o
                0x00000000000002e2                _Z12startSim900av
 .text.setup    0x0000000000000308       0x28 ./src/SmartCarPark.o
                0x0000000000000308                setup
 .text.loop     0x0000000000000330        0xa ./src/SmartCarPark.o
                0x0000000000000330                loop
 .text.startup._GLOBAL__sub_I_softSerial
                0x000000000000033a       0x6e ./src/SmartCarPark.o
 .text.exit._GLOBAL__sub_D_softSerial
                0x00000000000003a8        0x6 ./src/SmartCarPark.o
 .text._ZN6SdCard11checkSdCardEv
                0x00000000000003ae      0x1c0 /ICESX/workSpaceC/SmartCarPark/product/code/frontend/dev/SmartCarParkFront-Lib-Mine/ATMEGA_LIB/libSmartCarParkFront-Lib-Mine.a(SdCard.o)
                0x00000000000003ae                _ZN6SdCard11checkSdCardEv
 .text._ZN6SdCard4playEv
                0x000000000000056e       0x38 /ICESX/workSpaceC/SmartCarPark/product/code/frontend/dev/SmartCarParkFront-Lib-Mine/ATMEGA_LIB/libSmartCarParkFront-Lib-Mine.a(SdCard.o)
                0x000000000000056e                _ZN6SdCard4playEv
 .text._ZN14HardwareSerial9availableEv
                0x00000000000005a6       0x16 /ICESX/workSpaceC/SmartCarPark/product/code/frontend/dev/SmartCarParkFront-Lib/ATMEGA_LIB/libSmartCarParkFront-Lib.a(HardwareSerial.o)
                0x00000000000005a6                _ZN14HardwareSerial9availableEv
 .text._ZN14HardwareSerial4peekEv
                0x00000000000005bc       0x1c /ICESX/workSpaceC/SmartCarPark/product/code/frontend/dev/SmartCarParkFront-Lib/ATMEGA_LIB/libSmartCarParkFront-Lib.a(HardwareSerial.o)
                0x00000000000005bc                _ZN14HardwareSerial4peekEv
 .text._ZN14HardwareSerial4readEv
                0x00000000000005d8       0x28 /ICESX/workSpaceC/SmartCarPark/product/code/frontend/dev/SmartCarParkFront-Lib/ATMEGA_LIB/libSmartCarParkFront-Lib.a(HardwareSerial.o)
                0x00000000000005d8                _ZN14HardwareSerial4readEv
 .text._Z14serialEventRunv
                0x0000000000000600       0x78 /ICESX/workSpaceC/SmartCarPark/product/code/frontend/dev/SmartCarParkFront-Lib/ATMEGA_LIB/libSmartCarParkFront-Lib.a(HardwareSerial.o)
                0x0000000000000600                _Z14serialEventRunv
 .text._ZN14HardwareSerial17_tx_udr_empty_irqEv
                0x0000000000000678       0x42 /ICESX/workSpaceC/SmartCarPark/product/code/frontend/dev/SmartCarParkFront-Lib/ATMEGA_LIB/libSmartCarParkFront-Lib.a(HardwareSerial.o)
                0x0000000000000678                _ZN14HardwareSerial17_tx_udr_empty_irqEv
 .text._ZN14HardwareSerial5flushEv
                0x00000000000006ba       0x42 /ICESX/workSpaceC/SmartCarPark/product/code/frontend/dev/SmartCarParkFront-Lib/ATMEGA_LIB/libSmartCarParkFront-Lib.a(HardwareSerial.o)
                0x00000000000006ba                _ZN14HardwareSerial5flushEv
 .text._ZN14HardwareSerial5writeEh
                0x00000000000006fc       0xc8 /ICESX/workSpaceC/SmartCarPark/product/code/frontend/dev/SmartCarParkFront-Lib/ATMEGA_LIB/libSmartCarParkFront-Lib.a(HardwareSerial.o)
                0x00000000000006fc                _ZN14HardwareSerial5writeEh
 .text._ZN14HardwareSerial5beginEmh
                0x00000000000007c4       0xc4 /ICESX/workSpaceC/SmartCarPark/product/code/frontend/dev/SmartCarParkFront-Lib/ATMEGA_LIB/libSmartCarParkFront-Lib.a(HardwareSerial.o)
                0x00000000000007c4                _ZN14HardwareSerial5beginEmh
 .text.__vector_25
                0x0000000000000888       0x6c /ICESX/workSpaceC/SmartCarPark/product/code/frontend/dev/SmartCarParkFront-Lib/ATMEGA_LIB/libSmartCarParkFront-Lib.a(HardwareSerial0.o)
                0x0000000000000888                __vector_25
 .text.__vector_26
                0x00000000000008f4       0x52 /ICESX/workSpaceC/SmartCarPark/product/code/frontend/dev/SmartCarParkFront-Lib/ATMEGA_LIB/libSmartCarParkFront-Lib.a(HardwareSerial0.o)
                0x00000000000008f4                __vector_26
 .text._Z17Serial0_availablev
                0x0000000000000946       0x12 /ICESX/workSpaceC/SmartCarPark/product/code/frontend/dev/SmartCarParkFront-Lib/ATMEGA_LIB/libSmartCarParkFront-Lib.a(HardwareSerial0.o)
                0x0000000000000946                _Z17Serial0_availablev
 .text.startup._GLOBAL__sub_I___vector_25
                0x0000000000000958       0x86 /ICESX/workSpaceC/SmartCarPark/product/code/frontend/dev/SmartCarParkFront-Lib/ATMEGA_LIB/libSmartCarParkFront-Lib.a(HardwareSerial0.o)
 .text._ZNK9IPAddress7printToER5Print
                0x00000000000009de       0x6e /ICESX/workSpaceC/SmartCarPark/product/code/frontend/dev/SmartCarParkFront-Lib/ATMEGA_LIB/libSmartCarParkFront-Lib.a(IPAddress.o)
                0x00000000000009de                _ZNK9IPAddress7printToER5Print
 .text._ZN9IPAddressC2Ehhhh
                0x0000000000000a4c       0x18 /ICESX/workSpaceC/SmartCarPark/product/code/frontend/dev/SmartCarParkFront-Lib/ATMEGA_LIB/libSmartCarParkFront-Lib.a(IPAddress.o)
                0x0000000000000a4c                _ZN9IPAddressC1Ehhhh
                0x0000000000000a4c                _ZN9IPAddressC2Ehhhh
 .text.startup._GLOBAL__sub_I__ZN9IPAddressC2Ev
                0x0000000000000a64       0x1e /ICESX/workSpaceC/SmartCarPark/product/code/frontend/dev/SmartCarParkFront-Lib/ATMEGA_LIB/libSmartCarParkFront-Lib.a(IPAddress.o)
 .text._ZN5Print5writeEPKhj
                0x0000000000000a82       0x50 /ICESX/workSpaceC/SmartCarPark/product/code/frontend/dev/SmartCarParkFront-Lib/ATMEGA_LIB/libSmartCarParkFront-Lib.a(Print.o)
                0x0000000000000a82                _ZN5Print5writeEPKhj
 .text._ZN5Print5writeEPKc
                0x0000000000000ad2       0x2c /ICESX/workSpaceC/SmartCarPark/product/code/frontend/dev/SmartCarParkFront-Lib/ATMEGA_LIB/libSmartCarParkFront-Lib.a(Print.o)
                0x0000000000000ad2                _ZN5Print5writeEPKc
 .text._ZN5Print5printEPKc
                0x0000000000000afe        0x2 /ICESX/workSpaceC/SmartCarPark/product/code/frontend/dev/SmartCarParkFront-Lib/ATMEGA_LIB/libSmartCarParkFront-Lib.a(Print.o)
                0x0000000000000afe                _ZN5Print5printEPKc
 .text._ZN5Print5printEc
                0x0000000000000b00        0xe /ICESX/workSpaceC/SmartCarPark/product/code/frontend/dev/SmartCarParkFront-Lib/ATMEGA_LIB/libSmartCarParkFront-Lib.a(Print.o)
                0x0000000000000b00                _ZN5Print5printEc
 .text._ZN5Print7printlnEv
                0x0000000000000b0e        0x6 /ICESX/workSpaceC/SmartCarPark/product/code/frontend/dev/SmartCarParkFront-Lib/ATMEGA_LIB/libSmartCarParkFront-Lib.a(Print.o)
                0x0000000000000b0e                _ZN5Print7printlnEv
 .text._ZN5Print7printlnEPKc
                0x0000000000000b14       0x20 /ICESX/workSpaceC/SmartCarPark/product/code/frontend/dev/SmartCarParkFront-Lib/ATMEGA_LIB/libSmartCarParkFront-Lib.a(Print.o)
                0x0000000000000b14                _ZN5Print7printlnEPKc
 .text._ZN5Print11printNumberEmh
                0x0000000000000b34       0xb0 /ICESX/workSpaceC/SmartCarPark/product/code/frontend/dev/SmartCarParkFront-Lib/ATMEGA_LIB/libSmartCarParkFront-Lib.a(Print.o)
                0x0000000000000b34                _ZN5Print11printNumberEmh
 .text._ZN5Print5printEli
                0x0000000000000be4       0x8e /ICESX/workSpaceC/SmartCarPark/product/code/frontend/dev/SmartCarParkFront-Lib/ATMEGA_LIB/libSmartCarParkFront-Lib.a(Print.o)
                0x0000000000000be4                _ZN5Print5printEli
 .text._ZN5Print5printEii
                0x0000000000000c72        0xe /ICESX/workSpaceC/SmartCarPark/product/code/frontend/dev/SmartCarParkFront-Lib/ATMEGA_LIB/libSmartCarParkFront-Lib.a(Print.o)
                0x0000000000000c72                _ZN5Print5printEii
 .text._ZN5Print5printEmi
                0x0000000000000c80       0x18 /ICESX/workSpaceC/SmartCarPark/product/code/frontend/dev/SmartCarParkFront-Lib/ATMEGA_LIB/libSmartCarParkFront-Lib.a(Print.o)
                0x0000000000000c80                _ZN5Print5printEmi
 .text._ZN5Print5printEhi
                0x0000000000000c98        0xc /ICESX/workSpaceC/SmartCarPark/product/code/frontend/dev/SmartCarParkFront-Lib/ATMEGA_LIB/libSmartCarParkFront-Lib.a(Print.o)
                0x0000000000000c98                _ZN5Print5printEhi
 .text._ZN5Print7printlnEhi
                0x0000000000000ca4       0x2a /ICESX/workSpaceC/SmartCarPark/product/code/frontend/dev/SmartCarParkFront-Lib/ATMEGA_LIB/libSmartCarParkFront-Lib.a(Print.o)
                0x0000000000000ca4                _ZN5Print7printlnEhi
 .text._ZN5Print5printEji
                0x0000000000000cce        0xa /ICESX/workSpaceC/SmartCarPark/product/code/frontend/dev/SmartCarParkFront-Lib/ATMEGA_LIB/libSmartCarParkFront-Lib.a(Print.o)
                0x0000000000000cce                _ZN5Print5printEji
 .text._ZN5Print7printlnEmi
                0x0000000000000cd8       0x20 /ICESX/workSpaceC/SmartCarPark/product/code/frontend/dev/SmartCarParkFront-Lib/ATMEGA_LIB/libSmartCarParkFront-Lib.a(Print.o)
                0x0000000000000cd8                _ZN5Print7printlnEmi
 .text.initVariant
                0x0000000000000cf8        0x2 /ICESX/workSpaceC/SmartCarPark/product/code/frontend/dev/SmartCarParkFront-Lib/ATMEGA_LIB/libSmartCarParkFront-Lib.a(main.o)
                0x0000000000000cf8                initVariant
 .text.startup.main
                0x0000000000000cfa       0x14 /ICESX/workSpaceC/SmartCarPark/product/code/frontend/dev/SmartCarParkFront-Lib/ATMEGA_LIB/libSmartCarParkFront-Lib.a(main.o)
                0x0000000000000cfa                main
 .text.__vector_23
                0x0000000000000d0e       0x94 /ICESX/workSpaceC/SmartCarPark/product/code/frontend/dev/SmartCarParkFront-Lib/ATMEGA_LIB/libSmartCarParkFront-Lib.a(wiring.o)
                0x0000000000000d0e                __vector_23
 .text.millis   0x0000000000000da2       0x18 /ICESX/workSpaceC/SmartCarPark/product/code/frontend/dev/SmartCarParkFront-Lib/ATMEGA_LIB/libSmartCarParkFront-Lib.a(wiring.o)
                0x0000000000000da2                millis
 .text.micros   0x0000000000000dba       0x46 /ICESX/workSpaceC/SmartCarPark/product/code/frontend/dev/SmartCarParkFront-Lib/ATMEGA_LIB/libSmartCarParkFront-Lib.a(wiring.o)
                0x0000000000000dba                micros
 .text.delay    0x0000000000000e00       0x4c /ICESX/workSpaceC/SmartCarPark/product/code/frontend/dev/SmartCarParkFront-Lib/ATMEGA_LIB/libSmartCarParkFront-Lib.a(wiring.o)
                0x0000000000000e00                delay
 .text.init     0x0000000000000e4c       0xc4 /ICESX/workSpaceC/SmartCarPark/product/code/frontend/dev/SmartCarParkFront-Lib/ATMEGA_LIB/libSmartCarParkFront-Lib.a(wiring.o)
                0x0000000000000e4c                init
 .text.turnOffPWM
                0x0000000000000f10       0xa8 /ICESX/workSpaceC/SmartCarPark/product/code/frontend/dev/SmartCarParkFront-Lib/ATMEGA_LIB/libSmartCarParkFront-Lib.a(wiring_digital.o)
 .text.pinMode  0x0000000000000fb8       0x72 /ICESX/workSpaceC/SmartCarPark/product/code/frontend/dev/SmartCarParkFront-Lib/ATMEGA_LIB/libSmartCarParkFront-Lib.a(wiring_digital.o)
                0x0000000000000fb8                pinMode
 .text.digitalWrite
                0x000000000000102a       0x6a /ICESX/workSpaceC/SmartCarPark/product/code/frontend/dev/SmartCarParkFront-Lib/ATMEGA_LIB/libSmartCarParkFront-Lib.a(wiring_digital.o)
                0x000000000000102a                digitalWrite
 .text._ZN14SoftwareSerial4readEv
                0x0000000000001094       0x42 /ICESX/workSpaceC/SmartCarPark/product/code/frontend/dev/SmartCarParkFront-Lib/ATMEGA_LIB/libSmartCarParkFront-Lib.a(SoftwareSerial.o)
                0x0000000000001094                _ZN14SoftwareSerial4readEv
 .text._ZN14SoftwareSerial5writeEh
                0x00000000000010d6       0xa4 /ICESX/workSpaceC/SmartCarPark/product/code/frontend/dev/SmartCarParkFront-Lib/ATMEGA_LIB/libSmartCarParkFront-Lib.a(SoftwareSerial.o)
                0x00000000000010d6                _ZN14SoftwareSerial5writeEh
 .text._ZN14SoftwareSerial4peekEv
                0x000000000000117a       0x34 /ICESX/workSpaceC/SmartCarPark/product/code/frontend/dev/SmartCarParkFront-Lib/ATMEGA_LIB/libSmartCarParkFront-Lib.a(SoftwareSerial.o)
                0x000000000000117a                _ZN14SoftwareSerial4peekEv
 .text._ZN14SoftwareSerial9availableEv
                0x00000000000011ae       0x2e /ICESX/workSpaceC/SmartCarPark/product/code/frontend/dev/SmartCarParkFront-Lib/ATMEGA_LIB/libSmartCarParkFront-Lib.a(SoftwareSerial.o)
                0x00000000000011ae                _ZN14SoftwareSerial9availableEv
 .text._ZN14SoftwareSerial5flushEv
                0x00000000000011dc       0x1e /ICESX/workSpaceC/SmartCarPark/product/code/frontend/dev/SmartCarParkFront-Lib/ATMEGA_LIB/libSmartCarParkFront-Lib.a(SoftwareSerial.o)
                0x00000000000011dc                _ZN14SoftwareSerial5flushEv
 .text._ZN14SoftwareSerial13stopListeningEv
                0x00000000000011fa       0x2c /ICESX/workSpaceC/SmartCarPark/product/code/frontend/dev/SmartCarParkFront-Lib/ATMEGA_LIB/libSmartCarParkFront-Lib.a(SoftwareSerial.o)
                0x00000000000011fa                _ZN14SoftwareSerial13stopListeningEv
 .text._ZN14SoftwareSerial6listenEv
                0x0000000000001226       0x50 /ICESX/workSpaceC/SmartCarPark/product/code/frontend/dev/SmartCarParkFront-Lib/ATMEGA_LIB/libSmartCarParkFront-Lib.a(SoftwareSerial.o)
                0x0000000000001226                _ZN14SoftwareSerial6listenEv
 .text.__vector_9
                0x0000000000001276       0xfc /ICESX/workSpaceC/SmartCarPark/product/code/frontend/dev/SmartCarParkFront-Lib/ATMEGA_LIB/libSmartCarParkFront-Lib.a(SoftwareSerial.o)
                0x0000000000001276                __vector_11
                0x0000000000001276                __vector_9
                0x0000000000001276                __vector_10
 .text._ZN14SoftwareSerialD2Ev
                0x0000000000001372        0xc /ICESX/workSpaceC/SmartCarPark/product/code/frontend/dev/SmartCarParkFront-Lib/ATMEGA_LIB/libSmartCarParkFront-Lib.a(SoftwareSerial.o)
                0x0000000000001372                _ZN14SoftwareSerialD2Ev
                0x0000000000001372                _ZN14SoftwareSerialD1Ev
 .text._ZN14SoftwareSerial5setTXEh
                0x000000000000137e       0x4e /ICESX/workSpaceC/SmartCarPark/product/code/frontend/dev/SmartCarParkFront-Lib/ATMEGA_LIB/libSmartCarParkFront-Lib.a(SoftwareSerial.o)
                0x000000000000137e                _ZN14SoftwareSerial5setTXEh
 .text._ZN14SoftwareSerial5setRXEh
                0x00000000000013cc       0x4e /ICESX/workSpaceC/SmartCarPark/product/code/frontend/dev/SmartCarParkFront-Lib/ATMEGA_LIB/libSmartCarParkFront-Lib.a(SoftwareSerial.o)
                0x00000000000013cc                _ZN14SoftwareSerial5setRXEh
 .text._ZN14SoftwareSerialC2Ehhb
                0x000000000000141a       0x5c /ICESX/workSpaceC/SmartCarPark/product/code/frontend/dev/SmartCarParkFront-Lib/ATMEGA_LIB/libSmartCarParkFront-Lib.a(SoftwareSerial.o)
                0x000000000000141a                _ZN14SoftwareSerialC2Ehhb
                0x000000000000141a                _ZN14SoftwareSerialC1Ehhb
 .text._ZN14SoftwareSerial5beginEl
                0x0000000000001476      0x170 /ICESX/workSpaceC/SmartCarPark/product/code/frontend/dev/SmartCarParkFront-Lib/ATMEGA_LIB/libSmartCarParkFront-Lib.a(SoftwareSerial.o)
                0x0000000000001476                _ZN14SoftwareSerial5beginEl
 .text._ZN8SPIClass14endTransactionEv.part.3
                0x00000000000015e6       0x1a /ICESX/workSpaceC/SmartCarPark/product/code/frontend/dev/SmartCarParkFront-Lib/ATMEGA_LIB/libSmartCarParkFront-Lib.a(Sd2Card.o)
 .text._ZN8SPIClass16beginTransactionE11SPISettings
                0x0000000000001600       0x34 /ICESX/workSpaceC/SmartCarPark/product/code/frontend/dev/SmartCarParkFront-Lib/ATMEGA_LIB/libSmartCarParkFront-Lib.a(Sd2Card.o)
                0x0000000000001600                _ZN8SPIClass16beginTransactionE11SPISettings
 .text._ZN8SPIClass8transferEh
                0x0000000000001634        0xe /ICESX/workSpaceC/SmartCarPark/product/code/frontend/dev/SmartCarParkFront-Lib/ATMEGA_LIB/libSmartCarParkFront-Lib.a(Sd2Card.o)
                0x0000000000001634                _ZN8SPIClass8transferEh
 .text._ZL6spiRecv
                0x0000000000001642        0x4 /ICESX/workSpaceC/SmartCarPark/product/code/frontend/dev/SmartCarParkFront-Lib/ATMEGA_LIB/libSmartCarParkFront-Lib.a(Sd2Card.o)
 .text._ZN7Sd2Card14chipSelectHighEv
                0x0000000000001646       0x1e /ICESX/workSpaceC/SmartCarPark/product/code/frontend/dev/SmartCarParkFront-Lib/ATMEGA_LIB/libSmartCarParkFront-Lib.a(Sd2Card.o)
                0x0000000000001646                _ZN7Sd2Card14chipSelectHighEv
 .text._ZN7Sd2Card13chipSelectLowEv
                0x0000000000001664       0x28 /ICESX/workSpaceC/SmartCarPark/product/code/frontend/dev/SmartCarParkFront-Lib/ATMEGA_LIB/libSmartCarParkFront-Lib.a(Sd2Card.o)
                0x0000000000001664                _ZN7Sd2Card13chipSelectLowEv
 .text._ZN7Sd2Card7readEndEv
                0x000000000000168c       0x30 /ICESX/workSpaceC/SmartCarPark/product/code/frontend/dev/SmartCarParkFront-Lib/ATMEGA_LIB/libSmartCarParkFront-Lib.a(Sd2Card.o)
                0x000000000000168c                _ZN7Sd2Card7readEndEv
 .text._ZN7Sd2Card10setSckRateEh
                0x00000000000016bc       0x56 /ICESX/workSpaceC/SmartCarPark/product/code/frontend/dev/SmartCarParkFront-Lib/ATMEGA_LIB/libSmartCarParkFront-Lib.a(Sd2Card.o)
                0x00000000000016bc                _ZN7Sd2Card10setSckRateEh
 .text._ZN7Sd2Card11waitNotBusyEj
                0x0000000000001712       0x30 /ICESX/workSpaceC/SmartCarPark/product/code/frontend/dev/SmartCarParkFront-Lib/ATMEGA_LIB/libSmartCarParkFront-Lib.a(Sd2Card.o)
                0x0000000000001712                _ZN7Sd2Card11waitNotBusyEj
 .text._ZN7Sd2Card11cardCommandEhm
                0x0000000000001742       0xb6 /ICESX/workSpaceC/SmartCarPark/product/code/frontend/dev/SmartCarParkFront-Lib/ATMEGA_LIB/libSmartCarParkFront-Lib.a(Sd2Card.o)
                0x0000000000001742                _ZN7Sd2Card11cardCommandEhm
 .text._ZN7Sd2Card4initEhh
                0x00000000000017f8      0x15a /ICESX/workSpaceC/SmartCarPark/product/code/frontend/dev/SmartCarParkFront-Lib/ATMEGA_LIB/libSmartCarParkFront-Lib.a(Sd2Card.o)
                0x00000000000017f8                _ZN7Sd2Card4initEhh
 .text._ZN7Sd2Card14waitStartBlockEv
                0x0000000000001952       0x42 /ICESX/workSpaceC/SmartCarPark/product/code/frontend/dev/SmartCarParkFront-Lib/ATMEGA_LIB/libSmartCarParkFront-Lib.a(Sd2Card.o)
                0x0000000000001952                _ZN7Sd2Card14waitStartBlockEv
 .text._ZN7Sd2Card8readDataEmjjPh
                0x0000000000001994       0xf2 /ICESX/workSpaceC/SmartCarPark/product/code/frontend/dev/SmartCarParkFront-Lib/ATMEGA_LIB/libSmartCarParkFront-Lib.a(Sd2Card.o)
                0x0000000000001994                _ZN7Sd2Card8readDataEmjjPh
 .text._ZN7Sd2Card9readBlockEmPh
                0x0000000000001a86       0x1e /ICESX/workSpaceC/SmartCarPark/product/code/frontend/dev/SmartCarParkFront-Lib/ATMEGA_LIB/libSmartCarParkFront-Lib.a(Sd2Card.o)
                0x0000000000001a86                _ZN7Sd2Card9readBlockEmPh
 .text._ZN7Sd2Card9writeDataEhPKh
                0x0000000000001aa4       0x7c /ICESX/workSpaceC/SmartCarPark/product/code/frontend/dev/SmartCarParkFront-Lib/ATMEGA_LIB/libSmartCarParkFront-Lib.a(Sd2Card.o)
                0x0000000000001aa4                _ZN7Sd2Card9writeDataEhPKh
 .text._ZN7Sd2Card10writeBlockEmPKh
                0x0000000000001b20       0x8e /ICESX/workSpaceC/SmartCarPark/product/code/frontend/dev/SmartCarParkFront-Lib/ATMEGA_LIB/libSmartCarParkFront-Lib.a(Sd2Card.o)
                0x0000000000001b20                _ZN7Sd2Card10writeBlockEmPKh
 .text.startup._GLOBAL__sub_I__ZN7Sd2Card11cardCommandEhm
                0x0000000000001bae        0xc /ICESX/workSpaceC/SmartCarPark/product/code/frontend/dev/SmartCarParkFront-Lib/ATMEGA_LIB/libSmartCarParkFront-Lib.a(Sd2Card.o)
 .text._ZN6SdFile10addClusterEv
                0x0000000000001bba       0x54 /ICESX/workSpaceC/SmartCarPark/product/code/frontend/dev/SmartCarParkFront-Lib/ATMEGA_LIB/libSmartCarParkFront-Lib.a(SdFile.o)
                0x0000000000001bba                _ZN6SdFile10addClusterEv
 .text._ZN6SdFile13cacheDirEntryEh
                0x0000000000001c0e       0x30 /ICESX/workSpaceC/SmartCarPark/product/code/frontend/dev/SmartCarParkFront-Lib/ATMEGA_LIB/libSmartCarParkFront-Lib.a(SdFile.o)
                0x0000000000001c0e                _ZN6SdFile13cacheDirEntryEh
 .text._ZN6SdFile8openRootEP8SdVolume
                0x0000000000001c3e       0x9e /ICESX/workSpaceC/SmartCarPark/product/code/frontend/dev/SmartCarParkFront-Lib/ATMEGA_LIB/libSmartCarParkFront-Lib.a(SdFile.o)
                0x0000000000001c3e                _ZN6SdFile8openRootEP8SdVolume
 .text._ZN6SdFile14printTwoDigitsEh
                0x0000000000001cdc       0x34 /ICESX/workSpaceC/SmartCarPark/product/code/frontend/dev/SmartCarParkFront-Lib/ATMEGA_LIB/libSmartCarParkFront-Lib.a(SdFile.o)
                0x0000000000001cdc                _ZN6SdFile14printTwoDigitsEh
 .text._ZN6SdFile12printFatDateEj
                0x0000000000001d10       0x4c /ICESX/workSpaceC/SmartCarPark/product/code/frontend/dev/SmartCarParkFront-Lib/ATMEGA_LIB/libSmartCarParkFront-Lib.a(SdFile.o)
                0x0000000000001d10                _ZN6SdFile12printFatDateEj
 .text._ZN6SdFile12printFatTimeEj
                0x0000000000001d5c       0x40 /ICESX/workSpaceC/SmartCarPark/product/code/frontend/dev/SmartCarParkFront-Lib/ATMEGA_LIB/libSmartCarParkFront-Lib.a(SdFile.o)
                0x0000000000001d5c                _ZN6SdFile12printFatTimeEj
 .text._ZN6SdFile4readEPvj
                0x0000000000001d9c      0x20a /ICESX/workSpaceC/SmartCarPark/product/code/frontend/dev/SmartCarParkFront-Lib/ATMEGA_LIB/libSmartCarParkFront-Lib.a(SdFile.o)
                0x0000000000001d9c                _ZN6SdFile4readEPvj
 .text._ZN6SdFile12readDirCacheEv
                0x0000000000001fa6       0x94 /ICESX/workSpaceC/SmartCarPark/product/code/frontend/dev/SmartCarParkFront-Lib/ATMEGA_LIB/libSmartCarParkFront-Lib.a(SdFile.o)
                0x0000000000001fa6                _ZN6SdFile12readDirCacheEv
 .text._ZN6SdFile7seekSetEm
                0x000000000000203a      0x136 /ICESX/workSpaceC/SmartCarPark/product/code/frontend/dev/SmartCarParkFront-Lib/ATMEGA_LIB/libSmartCarParkFront-Lib.a(SdFile.o)
                0x000000000000203a                _ZN6SdFile7seekSetEm
 .text._ZN6SdFile4syncEv
                0x0000000000002170       0x8a /ICESX/workSpaceC/SmartCarPark/product/code/frontend/dev/SmartCarParkFront-Lib/ATMEGA_LIB/libSmartCarParkFront-Lib.a(SdFile.o)
                0x0000000000002170                _ZN6SdFile4syncEv
 .text._ZN6SdFile8truncateEm
                0x00000000000021fa      0x162 /ICESX/workSpaceC/SmartCarPark/product/code/frontend/dev/SmartCarParkFront-Lib/ATMEGA_LIB/libSmartCarParkFront-Lib.a(SdFile.o)
                0x00000000000021fa                _ZN6SdFile8truncateEm
 .text._ZN6SdFile15openCachedEntryEhh
                0x000000000000235c       0xd8 /ICESX/workSpaceC/SmartCarPark/product/code/frontend/dev/SmartCarParkFront-Lib/ATMEGA_LIB/libSmartCarParkFront-Lib.a(SdFile.o)
                0x000000000000235c                _ZN6SdFile15openCachedEntryEhh
 .text._ZN6SdFile4openEPS_jh
                0x0000000000002434       0x86 /ICESX/workSpaceC/SmartCarPark/product/code/frontend/dev/SmartCarParkFront-Lib/ATMEGA_LIB/libSmartCarParkFront-Lib.a(SdFile.o)
                0x0000000000002434                _ZN6SdFile4openEPS_jh
 .text._ZN6SdFile5writeEPKvj
                0x00000000000024ba      0x330 /ICESX/workSpaceC/SmartCarPark/product/code/frontend/dev/SmartCarParkFront-Lib/ATMEGA_LIB/libSmartCarParkFront-Lib.a(SdFile.o)
                0x00000000000024ba                _ZN6SdFile5writeEPKvj
 .text._ZN6SdFile5writeEh
                0x00000000000027ea       0x20 /ICESX/workSpaceC/SmartCarPark/product/code/frontend/dev/SmartCarParkFront-Lib/ATMEGA_LIB/libSmartCarParkFront-Lib.a(SdFile.o)
                0x00000000000027ea                _ZN6SdFile5writeEh
 .text._ZN6SdFile12printDirNameERK14directoryEntryh
                0x000000000000280a       0x74 /ICESX/workSpaceC/SmartCarPark/product/code/frontend/dev/SmartCarParkFront-Lib/ATMEGA_LIB/libSmartCarParkFront-Lib.a(SdFile.o)
                0x000000000000280a                _ZN6SdFile12printDirNameERK14directoryEntryh
 .text._ZN6SdFile2lsEhh
                0x000000000000287e      0x1bc /ICESX/workSpaceC/SmartCarPark/product/code/frontend/dev/SmartCarParkFront-Lib/ATMEGA_LIB/libSmartCarParkFront-Lib.a(SdFile.o)
                0x000000000000287e                _ZN6SdFile2lsEhh
 .text._ZN8SdVolume10cacheFlushEv
                0x0000000000002a3a       0x72 /ICESX/workSpaceC/SmartCarPark/product/code/frontend/dev/SmartCarParkFront-Lib/ATMEGA_LIB/libSmartCarParkFront-Lib.a(SdVolume.o)
                0x0000000000002a3a                _ZN8SdVolume10cacheFlushEv
 .text._ZN8SdVolume13cacheRawBlockEmh
                0x0000000000002aac       0x74 /ICESX/workSpaceC/SmartCarPark/product/code/frontend/dev/SmartCarParkFront-Lib/ATMEGA_LIB/libSmartCarParkFront-Lib.a(SdVolume.o)
                0x0000000000002aac                _ZN8SdVolume13cacheRawBlockEmh
 .text._ZNK8SdVolume6fatGetEmPm
                0x0000000000002b20      0x106 /ICESX/workSpaceC/SmartCarPark/product/code/frontend/dev/SmartCarParkFront-Lib/ATMEGA_LIB/libSmartCarParkFront-Lib.a(SdVolume.o)
                0x0000000000002b20                _ZNK8SdVolume6fatGetEmPm
 .text._ZNK8SdVolume9chainSizeEmPm
                0x0000000000002c26       0xd4 /ICESX/workSpaceC/SmartCarPark/product/code/frontend/dev/SmartCarParkFront-Lib/ATMEGA_LIB/libSmartCarParkFront-Lib.a(SdVolume.o)
                0x0000000000002c26                _ZNK8SdVolume9chainSizeEmPm
 .text._ZN8SdVolume6fatPutEmm
                0x0000000000002cfa      0x140 /ICESX/workSpaceC/SmartCarPark/product/code/frontend/dev/SmartCarParkFront-Lib/ATMEGA_LIB/libSmartCarParkFront-Lib.a(SdVolume.o)
                0x0000000000002cfa                _ZN8SdVolume6fatPutEmm
 .text._ZN8SdVolume15allocContiguousEmPm
                0x0000000000002e3a      0x222 /ICESX/workSpaceC/SmartCarPark/product/code/frontend/dev/SmartCarParkFront-Lib/ATMEGA_LIB/libSmartCarParkFront-Lib.a(SdVolume.o)
                0x0000000000002e3a                _ZN8SdVolume15allocContiguousEmPm
 .text._ZN8SdVolume9freeChainEm
                0x000000000000305c       0xa8 /ICESX/workSpaceC/SmartCarPark/product/code/frontend/dev/SmartCarParkFront-Lib/ATMEGA_LIB/libSmartCarParkFront-Lib.a(SdVolume.o)
                0x000000000000305c                _ZN8SdVolume9freeChainEm
 .text._ZN8SdVolume4initEP7Sd2Cardh
                0x0000000000003104      0x222 /ICESX/workSpaceC/SmartCarPark/product/code/frontend/dev/SmartCarParkFront-Lib/ATMEGA_LIB/libSmartCarParkFront-Lib.a(SdVolume.o)
                0x0000000000003104                _ZN8SdVolume4initEP7Sd2Cardh
 .text._ZN4File5writeEh
                0x0000000000003326       0x2c /ICESX/workSpaceC/SmartCarPark/product/code/frontend/dev/SmartCarParkFront-Lib/ATMEGA_LIB/libSmartCarParkFront-Lib.a(File.o)
                0x0000000000003326                _ZN4File5writeEh
 .text._ZN4File5writeEPKhj
                0x0000000000003352       0x34 /ICESX/workSpaceC/SmartCarPark/product/code/frontend/dev/SmartCarParkFront-Lib/ATMEGA_LIB/libSmartCarParkFront-Lib.a(File.o)
                0x0000000000003352                _ZN4File5writeEPKhj
 .text._ZN4File5flushEv
                0x0000000000003386       0x10 /ICESX/workSpaceC/SmartCarPark/product/code/frontend/dev/SmartCarParkFront-Lib/ATMEGA_LIB/libSmartCarParkFront-Lib.a(File.o)
                0x0000000000003386                _ZN4File5flushEv
 .text._ZN6SdFile4readEv
                0x0000000000003396       0x2e /ICESX/workSpaceC/SmartCarPark/product/code/frontend/dev/SmartCarParkFront-Lib/ATMEGA_LIB/libSmartCarParkFront-Lib.a(File.o)
                0x0000000000003396                _ZN6SdFile4readEv
 .text._ZN4File4readEv
                0x00000000000033c4       0x12 /ICESX/workSpaceC/SmartCarPark/product/code/frontend/dev/SmartCarParkFront-Lib/ATMEGA_LIB/libSmartCarParkFront-Lib.a(File.o)
                0x00000000000033c4                _ZN4File4readEv
 .text._ZN4File4peekEv
                0x00000000000033d6       0x54 /ICESX/workSpaceC/SmartCarPark/product/code/frontend/dev/SmartCarParkFront-Lib/ATMEGA_LIB/libSmartCarParkFront-Lib.a(File.o)
                0x00000000000033d6                _ZN4File4peekEv
 .text._ZN4FileC2Ev
                0x000000000000342a       0x26 /ICESX/workSpaceC/SmartCarPark/product/code/frontend/dev/SmartCarParkFront-Lib/ATMEGA_LIB/libSmartCarParkFront-Lib.a(File.o)
                0x000000000000342a                _ZN4FileC1Ev
                0x000000000000342a                _ZN4FileC2Ev
 .text._ZN4File8positionEv
                0x0000000000003450       0x20 /ICESX/workSpaceC/SmartCarPark/product/code/frontend/dev/SmartCarParkFront-Lib/ATMEGA_LIB/libSmartCarParkFront-Lib.a(File.o)
                0x0000000000003450                _ZN4File8positionEv
 .text._ZN4File4sizeEv
                0x0000000000003470       0x20 /ICESX/workSpaceC/SmartCarPark/product/code/frontend/dev/SmartCarParkFront-Lib/ATMEGA_LIB/libSmartCarParkFront-Lib.a(File.o)
                0x0000000000003470                _ZN4File4sizeEv
 .text._ZN4File9availableEv
                0x0000000000003490       0x5a /ICESX/workSpaceC/SmartCarPark/product/code/frontend/dev/SmartCarParkFront-Lib/ATMEGA_LIB/libSmartCarParkFront-Lib.a(File.o)
                0x0000000000003490                _ZN4File9availableEv
 .text._ZN7SDClass5beginEh
                0x00000000000034ea       0x5a /ICESX/workSpaceC/SmartCarPark/product/code/frontend/dev/SmartCarParkFront-Lib/ATMEGA_LIB/libSmartCarParkFront-Lib.a(SD.o)
                0x00000000000034ea                _ZN7SDClass5beginEh
 .text.startup._GLOBAL__sub_I__Z20getNextPathComponentPcPjS_
                0x0000000000003544       0x46 /ICESX/workSpaceC/SmartCarPark/product/code/frontend/dev/SmartCarParkFront-Lib/ATMEGA_LIB/libSmartCarParkFront-Lib.a(SD.o)
 .text.__empty  0x000000000000358a        0x2 /ICESX/workSpaceC/SmartCarPark/product/code/frontend/dev/SmartCarParkFront-Lib/ATMEGA_LIB/libSmartCarParkFront-Lib.a(hooks.o)
                0x000000000000358a                yield
 .text._ZN8SPIClass5beginEv
                0x000000000000358c       0x6c /ICESX/workSpaceC/SmartCarPark/product/code/frontend/dev/SmartCarParkFront-Lib/ATMEGA_LIB/libSmartCarParkFront-Lib.a(SPI.o)
                0x000000000000358c                _ZN8SPIClass5beginEv
 .text.libgcc.div
                0x00000000000035f8       0x18 /TOOLS/software/arduino-1.6.5/hardware/tools/avr/bin/../lib/gcc/avr/4.8.1/avr6/libgcc.a(_udivmodqi4.o)
                0x00000000000035f8                __udivmodqi4
 .text.libgcc.div
                0x0000000000003610       0x26 /TOOLS/software/arduino-1.6.5/hardware/tools/avr/bin/../lib/gcc/avr/4.8.1/avr6/libgcc.a(_divmodhi4.o)
                0x0000000000003610                __divmodhi4
                0x0000000000003610                _div
 .text.libgcc.div
                0x0000000000003636       0x44 /TOOLS/software/arduino-1.6.5/hardware/tools/avr/bin/../lib/gcc/avr/4.8.1/avr6/libgcc.a(_udivmodsi4.o)
                0x0000000000003636                __udivmodsi4
 .text.libgcc.div
                0x000000000000367a       0x28 /TOOLS/software/arduino-1.6.5/hardware/tools/avr/bin/../lib/gcc/avr/4.8.1/avr6/libgcc.a(_divmodsi4.o)
                0x000000000000367a                __divmodsi4
 .text.libgcc.div
                0x00000000000036a2       0x10 /TOOLS/software/arduino-1.6.5/hardware/tools/avr/bin/../lib/gcc/avr/4.8.1/avr6/libgcc.a(_negsi2.o)
                0x00000000000036a2                __negsi2
 .text.libgcc   0x00000000000036b2        0xc /TOOLS/software/arduino-1.6.5/hardware/tools/avr/bin/../lib/gcc/avr/4.8.1/avr6/libgcc.a(_tablejump.o)
                0x00000000000036b2                __tablejump2__
                0x00000000000036b6                __tablejump__
 .text.libgcc.mul
                0x00000000000036be       0x14 /TOOLS/software/arduino-1.6.5/hardware/tools/avr/bin/../lib/gcc/avr/4.8.1/avr6/libgcc.a(_muluhisi3.o)
                0x00000000000036be                __muluhisi3
 .text.libgcc   0x00000000000036d2        0x8 /TOOLS/software/arduino-1.6.5/hardware/tools/avr/bin/../lib/gcc/avr/4.8.1/avr6/libgcc.a(_tablejump_elpm.o)
                0x00000000000036d2                __tablejump_elpm__
 .text.libgcc.div
                0x00000000000036da       0x28 /TOOLS/software/arduino-1.6.5/hardware/tools/avr/bin/../lib/gcc/avr/4.8.1/avr6/libgcc.a(_udivmodhi4.o)
                0x00000000000036da                __udivmodhi4
 .text.libgcc.mul
                0x0000000000003702       0x1e /TOOLS/software/arduino-1.6.5/hardware/tools/avr/bin/../lib/gcc/avr/4.8.1/avr6/libgcc.a(_umulhisi3.o)
                0x0000000000003702                __umulhisi3
                0x0000000000003720                . = ALIGN (0x2)
 *(.fini9)
 .fini9         0x0000000000003720        0x0 /TOOLS/software/arduino-1.6.5/hardware/tools/avr/bin/../lib/gcc/avr/4.8.1/avr6/libgcc.a(_exit.o)
                0x0000000000003720                exit
                0x0000000000003720                _exit
 *(.fini9)
 *(.fini8)
 *(.fini8)
 *(.fini7)
 *(.fini7)
 *(.fini6)
 .fini6         0x0000000000003720       0x1e /TOOLS/software/arduino-1.6.5/hardware/tools/avr/bin/../lib/gcc/avr/4.8.1/avr6/libgcc.a(_dtors.o)
                0x0000000000003720                __do_global_dtors
 *(.fini6)
 *(.fini5)
 *(.fini5)
 *(.fini4)
 *(.fini4)
 *(.fini3)
 *(.fini3)
 *(.fini2)
 *(.fini2)
 *(.fini1)
 *(.fini1)
 *(.fini0)
 .fini0         0x000000000000373e        0x4 /TOOLS/software/arduino-1.6.5/hardware/tools/avr/bin/../lib/gcc/avr/4.8.1/avr6/libgcc.a(_exit.o)
 *(.fini0)
                0x0000000000003742                _etext = .

.data           0x0000000000800200      0x2e0 load address 0x0000000000003742
                0x0000000000800200                PROVIDE (__data_start, .)
 *(.data)
 .data          0x0000000000800200        0x0 /TOOLS/software/arduino-1.6.5/hardware/tools/avr/bin/../lib/gcc/avr/4.8.1/../../../../avr/lib/avr6/crtm2560.o
 .data          0x0000000000800200        0x0 ./src/SmartCarPark.o
 .data          0x0000000000800200        0x0 /ICESX/workSpaceC/SmartCarPark/product/code/frontend/dev/SmartCarParkFront-Lib-Mine/ATMEGA_LIB/libSmartCarParkFront-Lib-Mine.a(SdCard.o)
 .data          0x0000000000800200        0x0 /ICESX/workSpaceC/SmartCarPark/product/code/frontend/dev/SmartCarParkFront-Lib/ATMEGA_LIB/libSmartCarParkFront-Lib.a(HardwareSerial.o)
 .data          0x0000000000800200        0x0 /ICESX/workSpaceC/SmartCarPark/product/code/frontend/dev/SmartCarParkFront-Lib/ATMEGA_LIB/libSmartCarParkFront-Lib.a(HardwareSerial0.o)
 .data          0x0000000000800200        0x0 /ICESX/workSpaceC/SmartCarPark/product/code/frontend/dev/SmartCarParkFront-Lib/ATMEGA_LIB/libSmartCarParkFront-Lib.a(IPAddress.o)
 .data          0x0000000000800200        0x0 /ICESX/workSpaceC/SmartCarPark/product/code/frontend/dev/SmartCarParkFront-Lib/ATMEGA_LIB/libSmartCarParkFront-Lib.a(Print.o)
 .data          0x0000000000800200        0x0 /ICESX/workSpaceC/SmartCarPark/product/code/frontend/dev/SmartCarParkFront-Lib/ATMEGA_LIB/libSmartCarParkFront-Lib.a(abi.o)
 .data          0x0000000000800200        0x0 /ICESX/workSpaceC/SmartCarPark/product/code/frontend/dev/SmartCarParkFront-Lib/ATMEGA_LIB/libSmartCarParkFront-Lib.a(main.o)
 .data          0x0000000000800200        0x0 /ICESX/workSpaceC/SmartCarPark/product/code/frontend/dev/SmartCarParkFront-Lib/ATMEGA_LIB/libSmartCarParkFront-Lib.a(wiring.o)
 .data          0x0000000000800200        0x0 /ICESX/workSpaceC/SmartCarPark/product/code/frontend/dev/SmartCarParkFront-Lib/ATMEGA_LIB/libSmartCarParkFront-Lib.a(wiring_digital.o)
 .data          0x0000000000800200        0x0 /ICESX/workSpaceC/SmartCarPark/product/code/frontend/dev/SmartCarParkFront-Lib/ATMEGA_LIB/libSmartCarParkFront-Lib.a(SoftwareSerial.o)
 .data          0x0000000000800200        0x0 /ICESX/workSpaceC/SmartCarPark/product/code/frontend/dev/SmartCarParkFront-Lib/ATMEGA_LIB/libSmartCarParkFront-Lib.a(Sd2Card.o)
 .data          0x0000000000800200        0x0 /ICESX/workSpaceC/SmartCarPark/product/code/frontend/dev/SmartCarParkFront-Lib/ATMEGA_LIB/libSmartCarParkFront-Lib.a(SdFile.o)
 .data          0x0000000000800200        0x0 /ICESX/workSpaceC/SmartCarPark/product/code/frontend/dev/SmartCarParkFront-Lib/ATMEGA_LIB/libSmartCarParkFront-Lib.a(SdVolume.o)
 .data          0x0000000000800200        0x0 /ICESX/workSpaceC/SmartCarPark/product/code/frontend/dev/SmartCarParkFront-Lib/ATMEGA_LIB/libSmartCarParkFront-Lib.a(File.o)
 .data          0x0000000000800200        0x0 /ICESX/workSpaceC/SmartCarPark/product/code/frontend/dev/SmartCarParkFront-Lib/ATMEGA_LIB/libSmartCarParkFront-Lib.a(SD.o)
 .data          0x0000000000800200        0x0 /ICESX/workSpaceC/SmartCarPark/product/code/frontend/dev/SmartCarParkFront-Lib/ATMEGA_LIB/libSmartCarParkFront-Lib.a(hooks.o)
 .data          0x0000000000800200        0x0 /ICESX/workSpaceC/SmartCarPark/product/code/frontend/dev/SmartCarParkFront-Lib/ATMEGA_LIB/libSmartCarParkFront-Lib.a(SPI.o)
 .data          0x0000000000800200        0x0 /TOOLS/software/arduino-1.6.5/hardware/tools/avr/bin/../lib/gcc/avr/4.8.1/avr6/libgcc.a(_udivmodqi4.o)
 .data          0x0000000000800200        0x0 /TOOLS/software/arduino-1.6.5/hardware/tools/avr/bin/../lib/gcc/avr/4.8.1/avr6/libgcc.a(_divmodhi4.o)
 .data          0x0000000000800200        0x0 /TOOLS/software/arduino-1.6.5/hardware/tools/avr/bin/../lib/gcc/avr/4.8.1/avr6/libgcc.a(_udivmodsi4.o)
 .data          0x0000000000800200        0x0 /TOOLS/software/arduino-1.6.5/hardware/tools/avr/bin/../lib/gcc/avr/4.8.1/avr6/libgcc.a(_divmodsi4.o)
 .data          0x0000000000800200        0x0 /TOOLS/software/arduino-1.6.5/hardware/tools/avr/bin/../lib/gcc/avr/4.8.1/avr6/libgcc.a(_negsi2.o)
 .data          0x0000000000800200        0x0 /TOOLS/software/arduino-1.6.5/hardware/tools/avr/bin/../lib/gcc/avr/4.8.1/avr6/libgcc.a(_exit.o)
 .data          0x0000000000800200        0x0 /TOOLS/software/arduino-1.6.5/hardware/tools/avr/bin/../lib/gcc/avr/4.8.1/avr6/libgcc.a(_tablejump.o)
 .data          0x0000000000800200        0x0 /TOOLS/software/arduino-1.6.5/hardware/tools/avr/bin/../lib/gcc/avr/4.8.1/avr6/libgcc.a(_copy_data.o)
 .data          0x0000000000800200        0x0 /TOOLS/software/arduino-1.6.5/hardware/tools/avr/bin/../lib/gcc/avr/4.8.1/avr6/libgcc.a(_clear_bss.o)
 .data          0x0000000000800200        0x0 /TOOLS/software/arduino-1.6.5/hardware/tools/avr/bin/../lib/gcc/avr/4.8.1/avr6/libgcc.a(_ctors.o)
 .data          0x0000000000800200        0x0 /TOOLS/software/arduino-1.6.5/hardware/tools/avr/bin/../lib/gcc/avr/4.8.1/avr6/libgcc.a(_dtors.o)
 .data          0x0000000000800200        0x0 /TOOLS/software/arduino-1.6.5/hardware/tools/avr/bin/../lib/gcc/avr/4.8.1/avr6/libgcc.a(_muluhisi3.o)
 .data          0x0000000000800200        0x0 /TOOLS/software/arduino-1.6.5/hardware/tools/avr/bin/../lib/gcc/avr/4.8.1/avr6/libgcc.a(_tablejump_elpm.o)
 .data          0x0000000000800200        0x0 /TOOLS/software/arduino-1.6.5/hardware/tools/avr/bin/../lib/gcc/avr/4.8.1/avr6/libgcc.a(_udivmodhi4.o)
 .data          0x0000000000800200        0x0 /TOOLS/software/arduino-1.6.5/hardware/tools/avr/bin/../lib/gcc/avr/4.8.1/avr6/libgcc.a(_umulhisi3.o)
 .data          0x0000000000800200        0x0 /TOOLS/software/arduino-1.6.5/hardware/tools/avr/bin/../lib/gcc/avr/4.8.1/../../../../avr/lib/avr6/libm.a(addsf3.o)
 .data          0x0000000000800200        0x0 /TOOLS/software/arduino-1.6.5/hardware/tools/avr/bin/../lib/gcc/avr/4.8.1/../../../../avr/lib/avr6/libm.a(addsf3x.o)
 .data          0x0000000000800200        0x0 /TOOLS/software/arduino-1.6.5/hardware/tools/avr/bin/../lib/gcc/avr/4.8.1/../../../../avr/lib/avr6/libm.a(cmpsf2.o)
 .data          0x0000000000800200        0x0 /TOOLS/software/arduino-1.6.5/hardware/tools/avr/bin/../lib/gcc/avr/4.8.1/../../../../avr/lib/avr6/libm.a(divsf3.o)
 .data          0x0000000000800200        0x0 /TOOLS/software/arduino-1.6.5/hardware/tools/avr/bin/../lib/gcc/avr/4.8.1/../../../../avr/lib/avr6/libm.a(divsf3x.o)
 .data          0x0000000000800200        0x0 /TOOLS/software/arduino-1.6.5/hardware/tools/avr/bin/../lib/gcc/avr/4.8.1/../../../../avr/lib/avr6/libm.a(fixsfsi.o)
 .data          0x0000000000800200        0x0 /TOOLS/software/arduino-1.6.5/hardware/tools/avr/bin/../lib/gcc/avr/4.8.1/../../../../avr/lib/avr6/libm.a(fixunssfsi.o)
 .data          0x0000000000800200        0x0 /TOOLS/software/arduino-1.6.5/hardware/tools/avr/bin/../lib/gcc/avr/4.8.1/../../../../avr/lib/avr6/libm.a(floatsisf.o)
 .data          0x0000000000800200        0x0 /TOOLS/software/arduino-1.6.5/hardware/tools/avr/bin/../lib/gcc/avr/4.8.1/../../../../avr/lib/avr6/libm.a(fp_cmp.o)
 .data          0x0000000000800200        0x0 /TOOLS/software/arduino-1.6.5/hardware/tools/avr/bin/../lib/gcc/avr/4.8.1/../../../../avr/lib/avr6/libm.a(fp_inf.o)
 .data          0x0000000000800200        0x0 /TOOLS/software/arduino-1.6.5/hardware/tools/avr/bin/../lib/gcc/avr/4.8.1/../../../../avr/lib/avr6/libm.a(fp_nan.o)
 .data          0x0000000000800200        0x0 /TOOLS/software/arduino-1.6.5/hardware/tools/avr/bin/../lib/gcc/avr/4.8.1/../../../../avr/lib/avr6/libm.a(fp_pscA.o)
 .data          0x0000000000800200        0x0 /TOOLS/software/arduino-1.6.5/hardware/tools/avr/bin/../lib/gcc/avr/4.8.1/../../../../avr/lib/avr6/libm.a(fp_pscB.o)
 .data          0x0000000000800200        0x0 /TOOLS/software/arduino-1.6.5/hardware/tools/avr/bin/../lib/gcc/avr/4.8.1/../../../../avr/lib/avr6/libm.a(fp_round.o)
 .data          0x0000000000800200        0x0 /TOOLS/software/arduino-1.6.5/hardware/tools/avr/bin/../lib/gcc/avr/4.8.1/../../../../avr/lib/avr6/libm.a(fp_split3.o)
 .data          0x0000000000800200        0x0 /TOOLS/software/arduino-1.6.5/hardware/tools/avr/bin/../lib/gcc/avr/4.8.1/../../../../avr/lib/avr6/libm.a(fp_zero.o)
 .data          0x0000000000800200        0x0 /TOOLS/software/arduino-1.6.5/hardware/tools/avr/bin/../lib/gcc/avr/4.8.1/../../../../avr/lib/avr6/libm.a(gesf2.o)
 .data          0x0000000000800200        0x0 /TOOLS/software/arduino-1.6.5/hardware/tools/avr/bin/../lib/gcc/avr/4.8.1/../../../../avr/lib/avr6/libm.a(mulsf3.o)
 .data          0x0000000000800200        0x0 /TOOLS/software/arduino-1.6.5/hardware/tools/avr/bin/../lib/gcc/avr/4.8.1/../../../../avr/lib/avr6/libm.a(mulsf3x.o)
 .data          0x0000000000800200        0x0 /TOOLS/software/arduino-1.6.5/hardware/tools/avr/bin/../lib/gcc/avr/4.8.1/../../../../avr/lib/avr6/libm.a(unordsf2.o)
 .data          0x0000000000800200        0x6 /TOOLS/software/arduino-1.6.5/hardware/tools/avr/bin/../lib/gcc/avr/4.8.1/../../../../avr/lib/avr6/libc.a(malloc.o)
                0x0000000000800200                __malloc_heap_end
                0x0000000000800202                __malloc_heap_start
                0x0000000000800204                __malloc_margin
 .data          0x0000000000800206        0x0 /TOOLS/software/arduino-1.6.5/hardware/tools/avr/bin/../lib/gcc/avr/4.8.1/../../../../avr/lib/avr6/libc.a(abort.o)
 .data          0x0000000000800206        0x0 /TOOLS/software/arduino-1.6.5/hardware/tools/avr/bin/../lib/gcc/avr/4.8.1/../../../../avr/lib/avr6/libc.a(memcmp.o)
 .data          0x0000000000800206        0x0 /TOOLS/software/arduino-1.6.5/hardware/tools/avr/bin/../lib/gcc/avr/4.8.1/../../../../avr/lib/avr6/libc.a(strchr.o)
 .data          0x0000000000800206        0x0 /TOOLS/software/arduino-1.6.5/hardware/tools/avr/bin/../lib/gcc/avr/4.8.1/../../../../avr/lib/avr6/libc.a(strncpy.o)
 *(.data*)
 .data._ZN8SdVolume17cacheBlockNumber_E
                0x0000000000800206        0x4 /ICESX/workSpaceC/SmartCarPark/product/code/frontend/dev/SmartCarParkFront-Lib/ATMEGA_LIB/libSmartCarParkFront-Lib.a(SdVolume.o)
                0x0000000000800206                _ZN8SdVolume17cacheBlockNumber_E
 *(.rodata)
 *(.rodata*)
 .rodata.str1.1
                0x000000000080020a       0x21 ./src/SmartCarPark.o
 .rodata.str1.1
                0x000000000080022b      0x267 /ICESX/workSpaceC/SmartCarPark/product/code/frontend/dev/SmartCarParkFront-Lib-Mine/ATMEGA_LIB/libSmartCarParkFront-Lib-Mine.a(SdCard.o)
                                        0x269 (size before relaxing)
 .rodata._ZTV14HardwareSerial
                0x0000000000800492       0x10 /ICESX/workSpaceC/SmartCarPark/product/code/frontend/dev/SmartCarParkFront-Lib/ATMEGA_LIB/libSmartCarParkFront-Lib.a(HardwareSerial.o)
                0x0000000000800492                _ZTV14HardwareSerial
 .rodata._ZTV9IPAddress
                0x00000000008004a2        0x6 /ICESX/workSpaceC/SmartCarPark/product/code/frontend/dev/SmartCarParkFront-Lib/ATMEGA_LIB/libSmartCarParkFront-Lib.a(IPAddress.o)
                0x00000000008004a2                _ZTV9IPAddress
 .rodata.str1.1
                0x00000000008004a8        0xf /ICESX/workSpaceC/SmartCarPark/product/code/frontend/dev/SmartCarParkFront-Lib/ATMEGA_LIB/libSmartCarParkFront-Lib.a(Print.o)
                                         0x11 (size before relaxing)
 .rodata._ZTV14SoftwareSerial
                0x00000000008004b7       0x10 /ICESX/workSpaceC/SmartCarPark/product/code/frontend/dev/SmartCarParkFront-Lib/ATMEGA_LIB/libSmartCarParkFront-Lib.a(SoftwareSerial.o)
                0x00000000008004b7                _ZTV14SoftwareSerial
 .rodata._ZTV6SdFile
                0x00000000008004c7        0x8 /ICESX/workSpaceC/SmartCarPark/product/code/frontend/dev/SmartCarParkFront-Lib/ATMEGA_LIB/libSmartCarParkFront-Lib.a(SdFile.o)
                0x00000000008004c7                _ZTV6SdFile
 .rodata._ZTV4File
                0x00000000008004cf       0x10 /ICESX/workSpaceC/SmartCarPark/product/code/frontend/dev/SmartCarParkFront-Lib/ATMEGA_LIB/libSmartCarParkFront-Lib.a(File.o)
                0x00000000008004cf                _ZTV4File
 *(.gnu.linkonce.d*)
                0x00000000008004e0                . = ALIGN (0x2)
 *fill*         0x00000000008004df        0x1 
                0x00000000008004e0                _edata = .
                0x00000000008004e0                PROVIDE (__data_end, .)

.bss            0x00000000008004e0      0x3d2
                0x00000000008004e0                PROVIDE (__bss_start, .)
 *(.bss)
 *(.bss*)
 .bss.sdcard    0x00000000008004e0       0x64 ./src/SmartCarPark.o
                0x00000000008004e0                sdcard
 .bss.softSerial
                0x0000000000800544       0x1f ./src/SmartCarPark.o
                0x0000000000800544                softSerial
 .bss._ZL11INADDR_NONE
                0x0000000000800563        0x6 ./src/SmartCarPark.o
 .bss.Serial    0x0000000000800569       0x9d /ICESX/workSpaceC/SmartCarPark/product/code/frontend/dev/SmartCarParkFront-Lib/ATMEGA_LIB/libSmartCarParkFront-Lib.a(HardwareSerial0.o)
                0x0000000000800569                Serial
 .bss._ZL11INADDR_NONE
                0x0000000000800606        0x6 /ICESX/workSpaceC/SmartCarPark/product/code/frontend/dev/SmartCarParkFront-Lib/ATMEGA_LIB/libSmartCarParkFront-Lib.a(IPAddress.o)
 .bss.timer0_fract
                0x000000000080060c        0x1 /ICESX/workSpaceC/SmartCarPark/product/code/frontend/dev/SmartCarParkFront-Lib/ATMEGA_LIB/libSmartCarParkFront-Lib.a(wiring.o)
 .bss.timer0_millis
                0x000000000080060d        0x4 /ICESX/workSpaceC/SmartCarPark/product/code/frontend/dev/SmartCarParkFront-Lib/ATMEGA_LIB/libSmartCarParkFront-Lib.a(wiring.o)
                0x000000000080060d                timer0_millis
 .bss.timer0_overflow_count
                0x0000000000800611        0x4 /ICESX/workSpaceC/SmartCarPark/product/code/frontend/dev/SmartCarParkFront-Lib/ATMEGA_LIB/libSmartCarParkFront-Lib.a(wiring.o)
                0x0000000000800611                timer0_overflow_count
 .bss._ZN14SoftwareSerial20_receive_buffer_headE
                0x0000000000800615        0x1 /ICESX/workSpaceC/SmartCarPark/product/code/frontend/dev/SmartCarParkFront-Lib/ATMEGA_LIB/libSmartCarParkFront-Lib.a(SoftwareSerial.o)
                0x0000000000800615                _ZN14SoftwareSerial20_receive_buffer_headE
 .bss._ZN14SoftwareSerial20_receive_buffer_tailE
                0x0000000000800616        0x1 /ICESX/workSpaceC/SmartCarPark/product/code/frontend/dev/SmartCarParkFront-Lib/ATMEGA_LIB/libSmartCarParkFront-Lib.a(SoftwareSerial.o)
                0x0000000000800616                _ZN14SoftwareSerial20_receive_buffer_tailE
 .bss._ZN14SoftwareSerial15_receive_bufferE
                0x0000000000800617       0x40 /ICESX/workSpaceC/SmartCarPark/product/code/frontend/dev/SmartCarParkFront-Lib/ATMEGA_LIB/libSmartCarParkFront-Lib.a(SoftwareSerial.o)
                0x0000000000800617                _ZN14SoftwareSerial15_receive_bufferE
 .bss._ZN14SoftwareSerial13active_objectE
                0x0000000000800657        0x2 /ICESX/workSpaceC/SmartCarPark/product/code/frontend/dev/SmartCarParkFront-Lib/ATMEGA_LIB/libSmartCarParkFront-Lib.a(SoftwareSerial.o)
                0x0000000000800657                _ZN14SoftwareSerial13active_objectE
 .bss._ZL20chip_select_asserted
                0x0000000000800659        0x1 /ICESX/workSpaceC/SmartCarPark/product/code/frontend/dev/SmartCarParkFront-Lib/ATMEGA_LIB/libSmartCarParkFront-Lib.a(Sd2Card.o)
 .bss._ZL8settings
                0x000000000080065a        0x2 /ICESX/workSpaceC/SmartCarPark/product/code/frontend/dev/SmartCarParkFront-Lib/ATMEGA_LIB/libSmartCarParkFront-Lib.a(Sd2Card.o)
 .bss._ZN6SdFile9dateTime_E
                0x000000000080065c        0x2 /ICESX/workSpaceC/SmartCarPark/product/code/frontend/dev/SmartCarParkFront-Lib/ATMEGA_LIB/libSmartCarParkFront-Lib.a(SdFile.o)
                0x000000000080065c                _ZN6SdFile9dateTime_E
 .bss._ZN8SdVolume17cacheMirrorBlock_E
                0x000000000080065e        0x4 /ICESX/workSpaceC/SmartCarPark/product/code/frontend/dev/SmartCarParkFront-Lib/ATMEGA_LIB/libSmartCarParkFront-Lib.a(SdVolume.o)
                0x000000000080065e                _ZN8SdVolume17cacheMirrorBlock_E
 .bss._ZN8SdVolume11cacheDirty_E
                0x0000000000800662        0x1 /ICESX/workSpaceC/SmartCarPark/product/code/frontend/dev/SmartCarParkFront-Lib/ATMEGA_LIB/libSmartCarParkFront-Lib.a(SdVolume.o)
                0x0000000000800662                _ZN8SdVolume11cacheDirty_E
 .bss._ZN8SdVolume7sdCard_E
                0x0000000000800663        0x2 /ICESX/workSpaceC/SmartCarPark/product/code/frontend/dev/SmartCarParkFront-Lib/ATMEGA_LIB/libSmartCarParkFront-Lib.a(SdVolume.o)
                0x0000000000800663                _ZN8SdVolume7sdCard_E
 .bss._ZN8SdVolume12cacheBuffer_E
                0x0000000000800665      0x200 /ICESX/workSpaceC/SmartCarPark/product/code/frontend/dev/SmartCarParkFront-Lib/ATMEGA_LIB/libSmartCarParkFront-Lib.a(SdVolume.o)
                0x0000000000800665                _ZN8SdVolume12cacheBuffer_E
 .bss.SD        0x0000000000800865       0x49 /ICESX/workSpaceC/SmartCarPark/product/code/frontend/dev/SmartCarParkFront-Lib/ATMEGA_LIB/libSmartCarParkFront-Lib.a(SD.o)
                0x0000000000800865                SD
 .bss._ZN8SPIClass13interruptSaveE
                0x00000000008008ae        0x1 /ICESX/workSpaceC/SmartCarPark/product/code/frontend/dev/SmartCarParkFront-Lib/ATMEGA_LIB/libSmartCarParkFront-Lib.a(SPI.o)
                0x00000000008008ae                _ZN8SPIClass13interruptSaveE
 .bss._ZN8SPIClass13interruptMaskE
                0x00000000008008af        0x1 /ICESX/workSpaceC/SmartCarPark/product/code/frontend/dev/SmartCarParkFront-Lib/ATMEGA_LIB/libSmartCarParkFront-Lib.a(SPI.o)
                0x00000000008008af                _ZN8SPIClass13interruptMaskE
 .bss._ZN8SPIClass13interruptModeE
                0x00000000008008b0        0x1 /ICESX/workSpaceC/SmartCarPark/product/code/frontend/dev/SmartCarParkFront-Lib/ATMEGA_LIB/libSmartCarParkFront-Lib.a(SPI.o)
                0x00000000008008b0                _ZN8SPIClass13interruptModeE
 .bss._ZN8SPIClass11initializedE
                0x00000000008008b1        0x1 /ICESX/workSpaceC/SmartCarPark/product/code/frontend/dev/SmartCarParkFront-Lib/ATMEGA_LIB/libSmartCarParkFront-Lib.a(SPI.o)
                0x00000000008008b1                _ZN8SPIClass11initializedE
 *(COMMON)
                0x00000000008008b2                PROVIDE (__bss_end, .)
                0x0000000000003742                __data_load_start = LOADADDR (.data)
                0x0000000000003a22                __data_load_end = (__data_load_start + SIZEOF (.data))

.noinit         0x00000000008008b2        0x0
                0x00000000008008b2                PROVIDE (__noinit_start, .)
 *(.noinit*)
                0x00000000008008b2                PROVIDE (__noinit_end, .)
                0x00000000008008b2                _end = .
                0x00000000008008b2                PROVIDE (__heap_start, .)

.eeprom         0x0000000000810000        0x0
 *(.eeprom*)
                0x0000000000810000                __eeprom_end = .

.fuse
 *(.fuse)
 *(.lfuse)
 *(.hfuse)
 *(.efuse)

.lock
 *(.lock*)

.signature
 *(.signature*)

.stab           0x0000000000000000      0xac8
 *(.stab)
 .stab          0x0000000000000000      0xac8 /ICESX/workSpaceC/SmartCarPark/product/code/frontend/dev/SmartCarParkFront-Lib-Mine/ATMEGA_LIB/libSmartCarParkFront-Lib-Mine.a(SdCard.o)
                                       0x1374 (size before relaxing)

.stabstr        0x0000000000000000     0x35e8
 *(.stabstr)
 .stabstr       0x0000000000000000     0x35e8 /ICESX/workSpaceC/SmartCarPark/product/code/frontend/dev/SmartCarParkFront-Lib-Mine/ATMEGA_LIB/libSmartCarParkFront-Lib-Mine.a(SdCard.o)

.stab.excl
 *(.stab.excl)

.stab.exclstr
 *(.stab.exclstr)

.stab.index
 *(.stab.index)

.stab.indexstr
 *(.stab.indexstr)

.comment        0x0000000000000000       0x11
 *(.comment)
 .comment       0x0000000000000000       0x11 ./src/SmartCarPark.o
                                         0x12 (size before relaxing)
 .comment       0x0000000000000011       0x12 /ICESX/workSpaceC/SmartCarPark/product/code/frontend/dev/SmartCarParkFront-Lib-Mine/ATMEGA_LIB/libSmartCarParkFront-Lib-Mine.a(SdCard.o)
 .comment       0x0000000000000011       0x12 /ICESX/workSpaceC/SmartCarPark/product/code/frontend/dev/SmartCarParkFront-Lib/ATMEGA_LIB/libSmartCarParkFront-Lib.a(HardwareSerial.o)
 .comment       0x0000000000000011       0x12 /ICESX/workSpaceC/SmartCarPark/product/code/frontend/dev/SmartCarParkFront-Lib/ATMEGA_LIB/libSmartCarParkFront-Lib.a(HardwareSerial0.o)
 .comment       0x0000000000000011       0x12 /ICESX/workSpaceC/SmartCarPark/product/code/frontend/dev/SmartCarParkFront-Lib/ATMEGA_LIB/libSmartCarParkFront-Lib.a(IPAddress.o)
 .comment       0x0000000000000011       0x12 /ICESX/workSpaceC/SmartCarPark/product/code/frontend/dev/SmartCarParkFront-Lib/ATMEGA_LIB/libSmartCarParkFront-Lib.a(Print.o)
 .comment       0x0000000000000011       0x12 /ICESX/workSpaceC/SmartCarPark/product/code/frontend/dev/SmartCarParkFront-Lib/ATMEGA_LIB/libSmartCarParkFront-Lib.a(abi.o)
 .comment       0x0000000000000011       0x12 /ICESX/workSpaceC/SmartCarPark/product/code/frontend/dev/SmartCarParkFront-Lib/ATMEGA_LIB/libSmartCarParkFront-Lib.a(main.o)
 .comment       0x0000000000000011       0x12 /ICESX/workSpaceC/SmartCarPark/product/code/frontend/dev/SmartCarParkFront-Lib/ATMEGA_LIB/libSmartCarParkFront-Lib.a(wiring.o)
 .comment       0x0000000000000011       0x12 /ICESX/workSpaceC/SmartCarPark/product/code/frontend/dev/SmartCarParkFront-Lib/ATMEGA_LIB/libSmartCarParkFront-Lib.a(wiring_digital.o)
 .comment       0x0000000000000011       0x12 /ICESX/workSpaceC/SmartCarPark/product/code/frontend/dev/SmartCarParkFront-Lib/ATMEGA_LIB/libSmartCarParkFront-Lib.a(SoftwareSerial.o)
 .comment       0x0000000000000011       0x12 /ICESX/workSpaceC/SmartCarPark/product/code/frontend/dev/SmartCarParkFront-Lib/ATMEGA_LIB/libSmartCarParkFront-Lib.a(Sd2Card.o)
 .comment       0x0000000000000011       0x12 /ICESX/workSpaceC/SmartCarPark/product/code/frontend/dev/SmartCarParkFront-Lib/ATMEGA_LIB/libSmartCarParkFront-Lib.a(SdFile.o)
 .comment       0x0000000000000011       0x12 /ICESX/workSpaceC/SmartCarPark/product/code/frontend/dev/SmartCarParkFront-Lib/ATMEGA_LIB/libSmartCarParkFront-Lib.a(SdVolume.o)
 .comment       0x0000000000000011       0x12 /ICESX/workSpaceC/SmartCarPark/product/code/frontend/dev/SmartCarParkFront-Lib/ATMEGA_LIB/libSmartCarParkFront-Lib.a(File.o)
 .comment       0x0000000000000011       0x12 /ICESX/workSpaceC/SmartCarPark/product/code/frontend/dev/SmartCarParkFront-Lib/ATMEGA_LIB/libSmartCarParkFront-Lib.a(SD.o)
 .comment       0x0000000000000011       0x12 /ICESX/workSpaceC/SmartCarPark/product/code/frontend/dev/SmartCarParkFront-Lib/ATMEGA_LIB/libSmartCarParkFront-Lib.a(hooks.o)
 .comment       0x0000000000000011       0x12 /ICESX/workSpaceC/SmartCarPark/product/code/frontend/dev/SmartCarParkFront-Lib/ATMEGA_LIB/libSmartCarParkFront-Lib.a(SPI.o)
 .comment       0x0000000000000011       0x12 /TOOLS/software/arduino-1.6.5/hardware/tools/avr/bin/../lib/gcc/avr/4.8.1/../../../../avr/lib/avr6/libc.a(malloc.o)

.note.gnu.build-id
 *(.note.gnu.build-id)

.debug
 *(.debug)

.line
 *(.line)

.debug_srcinfo
 *(.debug_srcinfo)

.debug_sfnames
 *(.debug_sfnames)

.debug_aranges
 *(.debug_aranges)

.debug_pubnames
 *(.debug_pubnames)

.debug_info
 *(.debug_info .gnu.linkonce.wi.*)

.debug_abbrev
 *(.debug_abbrev)

.debug_line
 *(.debug_line .debug_line.* .debug_line_end)

.debug_frame
 *(.debug_frame)

.debug_str
 *(.debug_str)

.debug_loc
 *(.debug_loc)

.debug_macinfo
 *(.debug_macinfo)

.debug_weaknames
 *(.debug_weaknames)

.debug_funcnames
 *(.debug_funcnames)

.debug_typenames
 *(.debug_typenames)

.debug_varnames
 *(.debug_varnames)

.debug_pubtypes
 *(.debug_pubtypes)

.debug_ranges
 *(.debug_ranges)

.debug_macro
 *(.debug_macro)
OUTPUT(SmartCarParkFront.elf elf32-avr)
LOAD linker stubs

Cross Reference Table

Symbol                                            File
SD                                                /ICESX/workSpaceC/SmartCarPark/product/code/frontend/dev/SmartCarParkFront-Lib/ATMEGA_LIB/libSmartCarParkFront-Lib.a(SD.o)
                                                  /ICESX/workSpaceC/SmartCarPark/product/code/frontend/dev/SmartCarParkFront-Lib-Mine/ATMEGA_LIB/libSmartCarParkFront-Lib-Mine.a(SdCard.o)
SPI                                               /ICESX/workSpaceC/SmartCarPark/product/code/frontend/dev/SmartCarParkFront-Lib/ATMEGA_LIB/libSmartCarParkFront-Lib.a(SPI.o)
Serial                                            /ICESX/workSpaceC/SmartCarPark/product/code/frontend/dev/SmartCarParkFront-Lib/ATMEGA_LIB/libSmartCarParkFront-Lib.a(HardwareSerial0.o)
                                                  /ICESX/workSpaceC/SmartCarPark/product/code/frontend/dev/SmartCarParkFront-Lib/ATMEGA_LIB/libSmartCarParkFront-Lib.a(SdFile.o)
                                                  /ICESX/workSpaceC/SmartCarPark/product/code/frontend/dev/SmartCarParkFront-Lib-Mine/ATMEGA_LIB/libSmartCarParkFront-Lib-Mine.a(SdCard.o)
                                                  ./src/SmartCarPark.o
_Z10startW5100v                                   ./src/SmartCarPark.o
_Z11serialEventv                                  /ICESX/workSpaceC/SmartCarPark/product/code/frontend/dev/SmartCarParkFront-Lib/ATMEGA_LIB/libSmartCarParkFront-Lib.a(HardwareSerial.o)
_Z12serialEvent1v                                 /ICESX/workSpaceC/SmartCarPark/product/code/frontend/dev/SmartCarParkFront-Lib/ATMEGA_LIB/libSmartCarParkFront-Lib.a(HardwareSerial.o)
_Z12serialEvent2v                                 /ICESX/workSpaceC/SmartCarPark/product/code/frontend/dev/SmartCarParkFront-Lib/ATMEGA_LIB/libSmartCarParkFront-Lib.a(HardwareSerial.o)
_Z12serialEvent3v                                 /ICESX/workSpaceC/SmartCarPark/product/code/frontend/dev/SmartCarParkFront-Lib/ATMEGA_LIB/libSmartCarParkFront-Lib.a(HardwareSerial.o)
_Z12startSim900av                                 ./src/SmartCarPark.o
_Z14callback_rmdirR6SdFilePcbPv                   /ICESX/workSpaceC/SmartCarPark/product/code/frontend/dev/SmartCarParkFront-Lib/ATMEGA_LIB/libSmartCarParkFront-Lib.a(SD.o)
_Z14serialEventRunv                               /ICESX/workSpaceC/SmartCarPark/product/code/frontend/dev/SmartCarParkFront-Lib/ATMEGA_LIB/libSmartCarParkFront-Lib.a(HardwareSerial.o)
                                                  /ICESX/workSpaceC/SmartCarPark/product/code/frontend/dev/SmartCarParkFront-Lib/ATMEGA_LIB/libSmartCarParkFront-Lib.a(main.o)
_Z15callback_removeR6SdFilePcbPv                  /ICESX/workSpaceC/SmartCarPark/product/code/frontend/dev/SmartCarParkFront-Lib/ATMEGA_LIB/libSmartCarParkFront-Lib.a(SD.o)
_Z17Serial0_availablev                            /ICESX/workSpaceC/SmartCarPark/product/code/frontend/dev/SmartCarParkFront-Lib/ATMEGA_LIB/libSmartCarParkFront-Lib.a(HardwareSerial0.o)
                                                  /ICESX/workSpaceC/SmartCarPark/product/code/frontend/dev/SmartCarParkFront-Lib/ATMEGA_LIB/libSmartCarParkFront-Lib.a(HardwareSerial.o)
_Z17Serial1_availablev                            /ICESX/workSpaceC/SmartCarPark/product/code/frontend/dev/SmartCarParkFront-Lib/ATMEGA_LIB/libSmartCarParkFront-Lib.a(HardwareSerial.o)
_Z17Serial2_availablev                            /ICESX/workSpaceC/SmartCarPark/product/code/frontend/dev/SmartCarParkFront-Lib/ATMEGA_LIB/libSmartCarParkFront-Lib.a(HardwareSerial.o)
_Z17Serial3_availablev                            /ICESX/workSpaceC/SmartCarPark/product/code/frontend/dev/SmartCarParkFront-Lib/ATMEGA_LIB/libSmartCarParkFront-Lib.a(HardwareSerial.o)
_Z19callback_pathExistsR6SdFilePcbPv              /ICESX/workSpaceC/SmartCarPark/product/code/frontend/dev/SmartCarParkFront-Lib/ATMEGA_LIB/libSmartCarParkFront-Lib.a(SD.o)
_Z20callback_makeDirPathR6SdFilePcbPv             /ICESX/workSpaceC/SmartCarPark/product/code/frontend/dev/SmartCarParkFront-Lib/ATMEGA_LIB/libSmartCarParkFront-Lib.a(SD.o)
_Z20getNextPathComponentPcPjS_                    /ICESX/workSpaceC/SmartCarPark/product/code/frontend/dev/SmartCarParkFront-Lib/ATMEGA_LIB/libSmartCarParkFront-Lib.a(SD.o)
_Z6pownonv                                        ./src/SmartCarPark.o
_Z8walkPathPcR6SdFilePFbS1_S_bPvES2_              /ICESX/workSpaceC/SmartCarPark/product/code/frontend/dev/SmartCarParkFront-Lib/ATMEGA_LIB/libSmartCarParkFront-Lib.a(SD.o)
_ZN14HardwareSerial17_tx_udr_empty_irqEv          /ICESX/workSpaceC/SmartCarPark/product/code/frontend/dev/SmartCarParkFront-Lib/ATMEGA_LIB/libSmartCarParkFront-Lib.a(HardwareSerial.o)
                                                  /ICESX/workSpaceC/SmartCarPark/product/code/frontend/dev/SmartCarParkFront-Lib/ATMEGA_LIB/libSmartCarParkFront-Lib.a(HardwareSerial0.o)
_ZN14HardwareSerial17availableForWriteEv          /ICESX/workSpaceC/SmartCarPark/product/code/frontend/dev/SmartCarParkFront-Lib/ATMEGA_LIB/libSmartCarParkFront-Lib.a(HardwareSerial.o)
_ZN14HardwareSerial3endEv                         /ICESX/workSpaceC/SmartCarPark/product/code/frontend/dev/SmartCarParkFront-Lib/ATMEGA_LIB/libSmartCarParkFront-Lib.a(HardwareSerial.o)
_ZN14HardwareSerial4peekEv                        /ICESX/workSpaceC/SmartCarPark/product/code/frontend/dev/SmartCarParkFront-Lib/ATMEGA_LIB/libSmartCarParkFront-Lib.a(HardwareSerial.o)
_ZN14HardwareSerial4readEv                        /ICESX/workSpaceC/SmartCarPark/product/code/frontend/dev/SmartCarParkFront-Lib/ATMEGA_LIB/libSmartCarParkFront-Lib.a(HardwareSerial.o)
_ZN14HardwareSerial5beginEmh                      /ICESX/workSpaceC/SmartCarPark/product/code/frontend/dev/SmartCarParkFront-Lib/ATMEGA_LIB/libSmartCarParkFront-Lib.a(HardwareSerial.o)
                                                  ./src/SmartCarPark.o
_ZN14HardwareSerial5flushEv                       /ICESX/workSpaceC/SmartCarPark/product/code/frontend/dev/SmartCarParkFront-Lib/ATMEGA_LIB/libSmartCarParkFront-Lib.a(HardwareSerial.o)
_ZN14HardwareSerial5writeEh                       /ICESX/workSpaceC/SmartCarPark/product/code/frontend/dev/SmartCarParkFront-Lib/ATMEGA_LIB/libSmartCarParkFront-Lib.a(HardwareSerial.o)
                                                  /ICESX/workSpaceC/SmartCarPark/product/code/frontend/dev/SmartCarParkFront-Lib/ATMEGA_LIB/libSmartCarParkFront-Lib.a(SdFile.o)
_ZN14HardwareSerial9availableEv                   /ICESX/workSpaceC/SmartCarPark/product/code/frontend/dev/SmartCarParkFront-Lib/ATMEGA_LIB/libSmartCarParkFront-Lib.a(HardwareSerial.o)
                                                  /ICESX/workSpaceC/SmartCarPark/product/code/frontend/dev/SmartCarParkFront-Lib/ATMEGA_LIB/libSmartCarParkFront-Lib.a(HardwareSerial0.o)
_ZN14SoftwareSerial11rx_pin_readEv                /ICESX/workSpaceC/SmartCarPark/product/code/frontend/dev/SmartCarParkFront-Lib/ATMEGA_LIB/libSmartCarParkFront-Lib.a(SoftwareSerial.o)
_ZN14SoftwareSerial11setRxIntMskEb                /ICESX/workSpaceC/SmartCarPark/product/code/frontend/dev/SmartCarParkFront-Lib/ATMEGA_LIB/libSmartCarParkFront-Lib.a(SoftwareSerial.o)
_ZN14SoftwareSerial12subtract_capEjj              /ICESX/workSpaceC/SmartCarPark/product/code/frontend/dev/SmartCarParkFront-Lib/ATMEGA_LIB/libSmartCarParkFront-Lib.a(SoftwareSerial.o)
_ZN14SoftwareSerial13active_objectE               /ICESX/workSpaceC/SmartCarPark/product/code/frontend/dev/SmartCarParkFront-Lib/ATMEGA_LIB/libSmartCarParkFront-Lib.a(SoftwareSerial.o)
_ZN14SoftwareSerial13stopListeningEv              /ICESX/workSpaceC/SmartCarPark/product/code/frontend/dev/SmartCarParkFront-Lib/ATMEGA_LIB/libSmartCarParkFront-Lib.a(SoftwareSerial.o)
_ZN14SoftwareSerial15_receive_bufferE             /ICESX/workSpaceC/SmartCarPark/product/code/frontend/dev/SmartCarParkFront-Lib/ATMEGA_LIB/libSmartCarParkFront-Lib.a(SoftwareSerial.o)
_ZN14SoftwareSerial20_receive_buffer_headE        /ICESX/workSpaceC/SmartCarPark/product/code/frontend/dev/SmartCarParkFront-Lib/ATMEGA_LIB/libSmartCarParkFront-Lib.a(SoftwareSerial.o)
_ZN14SoftwareSerial20_receive_buffer_tailE        /ICESX/workSpaceC/SmartCarPark/product/code/frontend/dev/SmartCarParkFront-Lib/ATMEGA_LIB/libSmartCarParkFront-Lib.a(SoftwareSerial.o)
_ZN14SoftwareSerial3endEv                         /ICESX/workSpaceC/SmartCarPark/product/code/frontend/dev/SmartCarParkFront-Lib/ATMEGA_LIB/libSmartCarParkFront-Lib.a(SoftwareSerial.o)
_ZN14SoftwareSerial4peekEv                        /ICESX/workSpaceC/SmartCarPark/product/code/frontend/dev/SmartCarParkFront-Lib/ATMEGA_LIB/libSmartCarParkFront-Lib.a(SoftwareSerial.o)
_ZN14SoftwareSerial4readEv                        /ICESX/workSpaceC/SmartCarPark/product/code/frontend/dev/SmartCarParkFront-Lib/ATMEGA_LIB/libSmartCarParkFront-Lib.a(SoftwareSerial.o)
_ZN14SoftwareSerial4recvEv                        /ICESX/workSpaceC/SmartCarPark/product/code/frontend/dev/SmartCarParkFront-Lib/ATMEGA_LIB/libSmartCarParkFront-Lib.a(SoftwareSerial.o)
_ZN14SoftwareSerial5beginEl                       /ICESX/workSpaceC/SmartCarPark/product/code/frontend/dev/SmartCarParkFront-Lib/ATMEGA_LIB/libSmartCarParkFront-Lib.a(SoftwareSerial.o)
                                                  ./src/SmartCarPark.o
_ZN14SoftwareSerial5flushEv                       /ICESX/workSpaceC/SmartCarPark/product/code/frontend/dev/SmartCarParkFront-Lib/ATMEGA_LIB/libSmartCarParkFront-Lib.a(SoftwareSerial.o)
_ZN14SoftwareSerial5setRXEh                       /ICESX/workSpaceC/SmartCarPark/product/code/frontend/dev/SmartCarParkFront-Lib/ATMEGA_LIB/libSmartCarParkFront-Lib.a(SoftwareSerial.o)
_ZN14SoftwareSerial5setTXEh                       /ICESX/workSpaceC/SmartCarPark/product/code/frontend/dev/SmartCarParkFront-Lib/ATMEGA_LIB/libSmartCarParkFront-Lib.a(SoftwareSerial.o)
_ZN14SoftwareSerial5writeEh                       /ICESX/workSpaceC/SmartCarPark/product/code/frontend/dev/SmartCarParkFront-Lib/ATMEGA_LIB/libSmartCarParkFront-Lib.a(SoftwareSerial.o)
_ZN14SoftwareSerial6listenEv                      /ICESX/workSpaceC/SmartCarPark/product/code/frontend/dev/SmartCarParkFront-Lib/ATMEGA_LIB/libSmartCarParkFront-Lib.a(SoftwareSerial.o)
_ZN14SoftwareSerial9availableEv                   /ICESX/workSpaceC/SmartCarPark/product/code/frontend/dev/SmartCarParkFront-Lib/ATMEGA_LIB/libSmartCarParkFront-Lib.a(SoftwareSerial.o)
_ZN14SoftwareSerialC1Ehhb                         /ICESX/workSpaceC/SmartCarPark/product/code/frontend/dev/SmartCarParkFront-Lib/ATMEGA_LIB/libSmartCarParkFront-Lib.a(SoftwareSerial.o)
                                                  ./src/SmartCarPark.o
_ZN14SoftwareSerialC2Ehhb                         /ICESX/workSpaceC/SmartCarPark/product/code/frontend/dev/SmartCarParkFront-Lib/ATMEGA_LIB/libSmartCarParkFront-Lib.a(SoftwareSerial.o)
_ZN14SoftwareSerialD1Ev                           /ICESX/workSpaceC/SmartCarPark/product/code/frontend/dev/SmartCarParkFront-Lib/ATMEGA_LIB/libSmartCarParkFront-Lib.a(SoftwareSerial.o)
                                                  ./src/SmartCarPark.o
_ZN14SoftwareSerialD2Ev                           /ICESX/workSpaceC/SmartCarPark/product/code/frontend/dev/SmartCarParkFront-Lib/ATMEGA_LIB/libSmartCarParkFront-Lib.a(SoftwareSerial.o)
_ZN4File11isDirectoryEv                           /ICESX/workSpaceC/SmartCarPark/product/code/frontend/dev/SmartCarParkFront-Lib/ATMEGA_LIB/libSmartCarParkFront-Lib.a(File.o)
                                                  /ICESX/workSpaceC/SmartCarPark/product/code/frontend/dev/SmartCarParkFront-Lib/ATMEGA_LIB/libSmartCarParkFront-Lib.a(SD.o)
_ZN4File12openNextFileEh                          /ICESX/workSpaceC/SmartCarPark/product/code/frontend/dev/SmartCarParkFront-Lib/ATMEGA_LIB/libSmartCarParkFront-Lib.a(SD.o)
_ZN4File15rewindDirectoryEv                       /ICESX/workSpaceC/SmartCarPark/product/code/frontend/dev/SmartCarParkFront-Lib/ATMEGA_LIB/libSmartCarParkFront-Lib.a(SD.o)
_ZN4File4nameEv                                   /ICESX/workSpaceC/SmartCarPark/product/code/frontend/dev/SmartCarParkFront-Lib/ATMEGA_LIB/libSmartCarParkFront-Lib.a(File.o)
_ZN4File4peekEv                                   /ICESX/workSpaceC/SmartCarPark/product/code/frontend/dev/SmartCarParkFront-Lib/ATMEGA_LIB/libSmartCarParkFront-Lib.a(File.o)
_ZN4File4readEPvj                                 /ICESX/workSpaceC/SmartCarPark/product/code/frontend/dev/SmartCarParkFront-Lib/ATMEGA_LIB/libSmartCarParkFront-Lib.a(File.o)
_ZN4File4readEv                                   /ICESX/workSpaceC/SmartCarPark/product/code/frontend/dev/SmartCarParkFront-Lib/ATMEGA_LIB/libSmartCarParkFront-Lib.a(File.o)
                                                  /ICESX/workSpaceC/SmartCarPark/product/code/frontend/dev/SmartCarParkFront-Lib-Mine/ATMEGA_LIB/libSmartCarParkFront-Lib-Mine.a(SdCard.o)
_ZN4File4seekEm                                   /ICESX/workSpaceC/SmartCarPark/product/code/frontend/dev/SmartCarParkFront-Lib/ATMEGA_LIB/libSmartCarParkFront-Lib.a(File.o)
_ZN4File4sizeEv                                   /ICESX/workSpaceC/SmartCarPark/product/code/frontend/dev/SmartCarParkFront-Lib/ATMEGA_LIB/libSmartCarParkFront-Lib.a(File.o)
_ZN4File5closeEv                                  /ICESX/workSpaceC/SmartCarPark/product/code/frontend/dev/SmartCarParkFront-Lib/ATMEGA_LIB/libSmartCarParkFront-Lib.a(File.o)
                                                  /ICESX/workSpaceC/SmartCarPark/product/code/frontend/dev/SmartCarParkFront-Lib-Mine/ATMEGA_LIB/libSmartCarParkFront-Lib-Mine.a(SdCard.o)
_ZN4File5flushEv                                  /ICESX/workSpaceC/SmartCarPark/product/code/frontend/dev/SmartCarParkFront-Lib/ATMEGA_LIB/libSmartCarParkFront-Lib.a(File.o)
_ZN4File5writeEPKhj                               /ICESX/workSpaceC/SmartCarPark/product/code/frontend/dev/SmartCarParkFront-Lib/ATMEGA_LIB/libSmartCarParkFront-Lib.a(File.o)
_ZN4File5writeEh                                  /ICESX/workSpaceC/SmartCarPark/product/code/frontend/dev/SmartCarParkFront-Lib/ATMEGA_LIB/libSmartCarParkFront-Lib.a(File.o)
_ZN4File8positionEv                               /ICESX/workSpaceC/SmartCarPark/product/code/frontend/dev/SmartCarParkFront-Lib/ATMEGA_LIB/libSmartCarParkFront-Lib.a(File.o)
_ZN4File9availableEv                              /ICESX/workSpaceC/SmartCarPark/product/code/frontend/dev/SmartCarParkFront-Lib/ATMEGA_LIB/libSmartCarParkFront-Lib.a(File.o)
                                                  /ICESX/workSpaceC/SmartCarPark/product/code/frontend/dev/SmartCarParkFront-Lib-Mine/ATMEGA_LIB/libSmartCarParkFront-Lib-Mine.a(SdCard.o)
_ZN4FileC1E6SdFilePKc                             /ICESX/workSpaceC/SmartCarPark/product/code/frontend/dev/SmartCarParkFront-Lib/ATMEGA_LIB/libSmartCarParkFront-Lib.a(File.o)
                                                  /ICESX/workSpaceC/SmartCarPark/product/code/frontend/dev/SmartCarParkFront-Lib/ATMEGA_LIB/libSmartCarParkFront-Lib.a(SD.o)
_ZN4FileC1Ev                                      /ICESX/workSpaceC/SmartCarPark/product/code/frontend/dev/SmartCarParkFront-Lib/ATMEGA_LIB/libSmartCarParkFront-Lib.a(File.o)
                                                  /ICESX/workSpaceC/SmartCarPark/product/code/frontend/dev/SmartCarParkFront-Lib/ATMEGA_LIB/libSmartCarParkFront-Lib.a(SD.o)
                                                  ./src/SmartCarPark.o
_ZN4FileC2E6SdFilePKc                             /ICESX/workSpaceC/SmartCarPark/product/code/frontend/dev/SmartCarParkFront-Lib/ATMEGA_LIB/libSmartCarParkFront-Lib.a(File.o)
_ZN4FileC2Ev                                      /ICESX/workSpaceC/SmartCarPark/product/code/frontend/dev/SmartCarParkFront-Lib/ATMEGA_LIB/libSmartCarParkFront-Lib.a(File.o)
_ZN4FilecvbEv                                     /ICESX/workSpaceC/SmartCarPark/product/code/frontend/dev/SmartCarParkFront-Lib/ATMEGA_LIB/libSmartCarParkFront-Lib.a(File.o)
                                                  /ICESX/workSpaceC/SmartCarPark/product/code/frontend/dev/SmartCarParkFront-Lib-Mine/ATMEGA_LIB/libSmartCarParkFront-Lib-Mine.a(SdCard.o)
_ZN5Print10printFloatEdh                          /ICESX/workSpaceC/SmartCarPark/product/code/frontend/dev/SmartCarParkFront-Lib/ATMEGA_LIB/libSmartCarParkFront-Lib.a(Print.o)
_ZN5Print11printNumberEmh                         /ICESX/workSpaceC/SmartCarPark/product/code/frontend/dev/SmartCarParkFront-Lib/ATMEGA_LIB/libSmartCarParkFront-Lib.a(Print.o)
_ZN5Print5printEPK19__FlashStringHelper           /ICESX/workSpaceC/SmartCarPark/product/code/frontend/dev/SmartCarParkFront-Lib/ATMEGA_LIB/libSmartCarParkFront-Lib.a(Print.o)
_ZN5Print5printEPKc                               /ICESX/workSpaceC/SmartCarPark/product/code/frontend/dev/SmartCarParkFront-Lib/ATMEGA_LIB/libSmartCarParkFront-Lib.a(Print.o)
                                                  /ICESX/workSpaceC/SmartCarPark/product/code/frontend/dev/SmartCarParkFront-Lib/ATMEGA_LIB/libSmartCarParkFront-Lib.a(SdFile.o)
                                                  /ICESX/workSpaceC/SmartCarPark/product/code/frontend/dev/SmartCarParkFront-Lib-Mine/ATMEGA_LIB/libSmartCarParkFront-Lib-Mine.a(SdCard.o)
_ZN5Print5printERK6String                         /ICESX/workSpaceC/SmartCarPark/product/code/frontend/dev/SmartCarParkFront-Lib/ATMEGA_LIB/libSmartCarParkFront-Lib.a(Print.o)
_ZN5Print5printERK9Printable                      /ICESX/workSpaceC/SmartCarPark/product/code/frontend/dev/SmartCarParkFront-Lib/ATMEGA_LIB/libSmartCarParkFront-Lib.a(Print.o)
_ZN5Print5printEc                                 /ICESX/workSpaceC/SmartCarPark/product/code/frontend/dev/SmartCarParkFront-Lib/ATMEGA_LIB/libSmartCarParkFront-Lib.a(Print.o)
                                                  /ICESX/workSpaceC/SmartCarPark/product/code/frontend/dev/SmartCarParkFront-Lib/ATMEGA_LIB/libSmartCarParkFront-Lib.a(SdFile.o)
                                                  /ICESX/workSpaceC/SmartCarPark/product/code/frontend/dev/SmartCarParkFront-Lib/ATMEGA_LIB/libSmartCarParkFront-Lib.a(IPAddress.o)
_ZN5Print5printEdi                                /ICESX/workSpaceC/SmartCarPark/product/code/frontend/dev/SmartCarParkFront-Lib/ATMEGA_LIB/libSmartCarParkFront-Lib.a(Print.o)
_ZN5Print5printEhi                                /ICESX/workSpaceC/SmartCarPark/product/code/frontend/dev/SmartCarParkFront-Lib/ATMEGA_LIB/libSmartCarParkFront-Lib.a(Print.o)
                                                  /ICESX/workSpaceC/SmartCarPark/product/code/frontend/dev/SmartCarParkFront-Lib/ATMEGA_LIB/libSmartCarParkFront-Lib.a(IPAddress.o)
_ZN5Print5printEii                                /ICESX/workSpaceC/SmartCarPark/product/code/frontend/dev/SmartCarParkFront-Lib/ATMEGA_LIB/libSmartCarParkFront-Lib.a(Print.o)
                                                  /ICESX/workSpaceC/SmartCarPark/product/code/frontend/dev/SmartCarParkFront-Lib-Mine/ATMEGA_LIB/libSmartCarParkFront-Lib-Mine.a(SdCard.o)
_ZN5Print5printEji                                /ICESX/workSpaceC/SmartCarPark/product/code/frontend/dev/SmartCarParkFront-Lib/ATMEGA_LIB/libSmartCarParkFront-Lib.a(Print.o)
                                                  /ICESX/workSpaceC/SmartCarPark/product/code/frontend/dev/SmartCarParkFront-Lib/ATMEGA_LIB/libSmartCarParkFront-Lib.a(SdFile.o)
_ZN5Print5printEli                                /ICESX/workSpaceC/SmartCarPark/product/code/frontend/dev/SmartCarParkFront-Lib/ATMEGA_LIB/libSmartCarParkFront-Lib.a(Print.o)
_ZN5Print5printEmi                                /ICESX/workSpaceC/SmartCarPark/product/code/frontend/dev/SmartCarParkFront-Lib/ATMEGA_LIB/libSmartCarParkFront-Lib.a(Print.o)
                                                  /ICESX/workSpaceC/SmartCarPark/product/code/frontend/dev/SmartCarParkFront-Lib/ATMEGA_LIB/libSmartCarParkFront-Lib.a(SdFile.o)
_ZN5Print5writeEPKc                               /ICESX/workSpaceC/SmartCarPark/product/code/frontend/dev/SmartCarParkFront-Lib/ATMEGA_LIB/libSmartCarParkFront-Lib.a(Print.o)
_ZN5Print5writeEPKhj                              /ICESX/workSpaceC/SmartCarPark/product/code/frontend/dev/SmartCarParkFront-Lib/ATMEGA_LIB/libSmartCarParkFront-Lib.a(Print.o)
                                                  /ICESX/workSpaceC/SmartCarPark/product/code/frontend/dev/SmartCarParkFront-Lib/ATMEGA_LIB/libSmartCarParkFront-Lib.a(File.o)
                                                  /ICESX/workSpaceC/SmartCarPark/product/code/frontend/dev/SmartCarParkFront-Lib/ATMEGA_LIB/libSmartCarParkFront-Lib.a(SdFile.o)
                                                  /ICESX/workSpaceC/SmartCarPark/product/code/frontend/dev/SmartCarParkFront-Lib/ATMEGA_LIB/libSmartCarParkFront-Lib.a(SoftwareSerial.o)
                                                  /ICESX/workSpaceC/SmartCarPark/product/code/frontend/dev/SmartCarParkFront-Lib/ATMEGA_LIB/libSmartCarParkFront-Lib.a(HardwareSerial.o)
_ZN5Print7printlnEPK19__FlashStringHelper         /ICESX/workSpaceC/SmartCarPark/product/code/frontend/dev/SmartCarParkFront-Lib/ATMEGA_LIB/libSmartCarParkFront-Lib.a(Print.o)
_ZN5Print7printlnEPKc                             /ICESX/workSpaceC/SmartCarPark/product/code/frontend/dev/SmartCarParkFront-Lib/ATMEGA_LIB/libSmartCarParkFront-Lib.a(Print.o)
                                                  /ICESX/workSpaceC/SmartCarPark/product/code/frontend/dev/SmartCarParkFront-Lib-Mine/ATMEGA_LIB/libSmartCarParkFront-Lib-Mine.a(SdCard.o)
                                                  ./src/SmartCarPark.o
_ZN5Print7printlnERK6String                       /ICESX/workSpaceC/SmartCarPark/product/code/frontend/dev/SmartCarParkFront-Lib/ATMEGA_LIB/libSmartCarParkFront-Lib.a(Print.o)
_ZN5Print7printlnERK9Printable                    /ICESX/workSpaceC/SmartCarPark/product/code/frontend/dev/SmartCarParkFront-Lib/ATMEGA_LIB/libSmartCarParkFront-Lib.a(Print.o)
_ZN5Print7printlnEc                               /ICESX/workSpaceC/SmartCarPark/product/code/frontend/dev/SmartCarParkFront-Lib/ATMEGA_LIB/libSmartCarParkFront-Lib.a(Print.o)
_ZN5Print7printlnEdi                              /ICESX/workSpaceC/SmartCarPark/product/code/frontend/dev/SmartCarParkFront-Lib/ATMEGA_LIB/libSmartCarParkFront-Lib.a(Print.o)
_ZN5Print7printlnEhi                              /ICESX/workSpaceC/SmartCarPark/product/code/frontend/dev/SmartCarParkFront-Lib/ATMEGA_LIB/libSmartCarParkFront-Lib.a(Print.o)
                                                  /ICESX/workSpaceC/SmartCarPark/product/code/frontend/dev/SmartCarParkFront-Lib-Mine/ATMEGA_LIB/libSmartCarParkFront-Lib-Mine.a(SdCard.o)
_ZN5Print7printlnEii                              /ICESX/workSpaceC/SmartCarPark/product/code/frontend/dev/SmartCarParkFront-Lib/ATMEGA_LIB/libSmartCarParkFront-Lib.a(Print.o)
_ZN5Print7printlnEji                              /ICESX/workSpaceC/SmartCarPark/product/code/frontend/dev/SmartCarParkFront-Lib/ATMEGA_LIB/libSmartCarParkFront-Lib.a(Print.o)
_ZN5Print7printlnEli                              /ICESX/workSpaceC/SmartCarPark/product/code/frontend/dev/SmartCarParkFront-Lib/ATMEGA_LIB/libSmartCarParkFront-Lib.a(Print.o)
_ZN5Print7printlnEmi                              /ICESX/workSpaceC/SmartCarPark/product/code/frontend/dev/SmartCarParkFront-Lib/ATMEGA_LIB/libSmartCarParkFront-Lib.a(Print.o)
                                                  /ICESX/workSpaceC/SmartCarPark/product/code/frontend/dev/SmartCarParkFront-Lib-Mine/ATMEGA_LIB/libSmartCarParkFront-Lib-Mine.a(SdCard.o)
_ZN5Print7printlnEv                               /ICESX/workSpaceC/SmartCarPark/product/code/frontend/dev/SmartCarParkFront-Lib/ATMEGA_LIB/libSmartCarParkFront-Lib.a(Print.o)
                                                  /ICESX/workSpaceC/SmartCarPark/product/code/frontend/dev/SmartCarParkFront-Lib/ATMEGA_LIB/libSmartCarParkFront-Lib.a(SdFile.o)
                                                  /ICESX/workSpaceC/SmartCarPark/product/code/frontend/dev/SmartCarParkFront-Lib-Mine/ATMEGA_LIB/libSmartCarParkFront-Lib-Mine.a(SdCard.o)
_ZN6SdCard11checkSdCardEv                         /ICESX/workSpaceC/SmartCarPark/product/code/frontend/dev/SmartCarParkFront-Lib-Mine/ATMEGA_LIB/libSmartCarParkFront-Lib-Mine.a(SdCard.o)
                                                  ./src/SmartCarPark.o
_ZN6SdCard4playEv                                 /ICESX/workSpaceC/SmartCarPark/product/code/frontend/dev/SmartCarParkFront-Lib-Mine/ATMEGA_LIB/libSmartCarParkFront-Lib-Mine.a(SdCard.o)
                                                  ./src/SmartCarPark.o
_ZN6SdCard8readFileEPc                            /ICESX/workSpaceC/SmartCarPark/product/code/frontend/dev/SmartCarParkFront-Lib-Mine/ATMEGA_LIB/libSmartCarParkFront-Lib-Mine.a(SdCard.o)
_ZN6SdCard9writeFileEPcS0_                        /ICESX/workSpaceC/SmartCarPark/product/code/frontend/dev/SmartCarParkFront-Lib-Mine/ATMEGA_LIB/libSmartCarParkFront-Lib-Mine.a(SdCard.o)
_ZN6SdFile10addClusterEv                          /ICESX/workSpaceC/SmartCarPark/product/code/frontend/dev/SmartCarParkFront-Lib/ATMEGA_LIB/libSmartCarParkFront-Lib.a(SdFile.o)
_ZN6SdFile10make83NameEPKcPh                      /ICESX/workSpaceC/SmartCarPark/product/code/frontend/dev/SmartCarParkFront-Lib/ATMEGA_LIB/libSmartCarParkFront-Lib.a(SdFile.o)
_ZN6SdFile12oldDateTime_E                         /ICESX/workSpaceC/SmartCarPark/product/code/frontend/dev/SmartCarParkFront-Lib/ATMEGA_LIB/libSmartCarParkFront-Lib.a(SdFile.o)
_ZN6SdFile12printDirNameERK14directoryEntryh      /ICESX/workSpaceC/SmartCarPark/product/code/frontend/dev/SmartCarParkFront-Lib/ATMEGA_LIB/libSmartCarParkFront-Lib.a(SdFile.o)
_ZN6SdFile12printFatDateEj                        /ICESX/workSpaceC/SmartCarPark/product/code/frontend/dev/SmartCarParkFront-Lib/ATMEGA_LIB/libSmartCarParkFront-Lib.a(SdFile.o)
_ZN6SdFile12printFatTimeEj                        /ICESX/workSpaceC/SmartCarPark/product/code/frontend/dev/SmartCarParkFront-Lib/ATMEGA_LIB/libSmartCarParkFront-Lib.a(SdFile.o)
_ZN6SdFile12readDirCacheEv                        /ICESX/workSpaceC/SmartCarPark/product/code/frontend/dev/SmartCarParkFront-Lib/ATMEGA_LIB/libSmartCarParkFront-Lib.a(SdFile.o)
_ZN6SdFile13addDirClusterEv                       /ICESX/workSpaceC/SmartCarPark/product/code/frontend/dev/SmartCarParkFront-Lib/ATMEGA_LIB/libSmartCarParkFront-Lib.a(SdFile.o)
_ZN6SdFile13cacheDirEntryEh                       /ICESX/workSpaceC/SmartCarPark/product/code/frontend/dev/SmartCarParkFront-Lib/ATMEGA_LIB/libSmartCarParkFront-Lib.a(SdFile.o)
_ZN6SdFile14printTwoDigitsEh                      /ICESX/workSpaceC/SmartCarPark/product/code/frontend/dev/SmartCarParkFront-Lib/ATMEGA_LIB/libSmartCarParkFront-Lib.a(SdFile.o)
_ZN6SdFile15contiguousRangeEPmS0_                 /ICESX/workSpaceC/SmartCarPark/product/code/frontend/dev/SmartCarParkFront-Lib/ATMEGA_LIB/libSmartCarParkFront-Lib.a(SdFile.o)
_ZN6SdFile15openCachedEntryEhh                    /ICESX/workSpaceC/SmartCarPark/product/code/frontend/dev/SmartCarParkFront-Lib/ATMEGA_LIB/libSmartCarParkFront-Lib.a(SdFile.o)
_ZN6SdFile16createContiguousEPS_PKcm              /ICESX/workSpaceC/SmartCarPark/product/code/frontend/dev/SmartCarParkFront-Lib/ATMEGA_LIB/libSmartCarParkFront-Lib.a(SdFile.o)
_ZN6SdFile2lsEhh                                  /ICESX/workSpaceC/SmartCarPark/product/code/frontend/dev/SmartCarParkFront-Lib/ATMEGA_LIB/libSmartCarParkFront-Lib.a(SdFile.o)
                                                  /ICESX/workSpaceC/SmartCarPark/product/code/frontend/dev/SmartCarParkFront-Lib-Mine/ATMEGA_LIB/libSmartCarParkFront-Lib-Mine.a(SdCard.o)
_ZN6SdFile4openEPS_PKch                           /ICESX/workSpaceC/SmartCarPark/product/code/frontend/dev/SmartCarParkFront-Lib/ATMEGA_LIB/libSmartCarParkFront-Lib.a(SdFile.o)
                                                  /ICESX/workSpaceC/SmartCarPark/product/code/frontend/dev/SmartCarParkFront-Lib/ATMEGA_LIB/libSmartCarParkFront-Lib.a(SD.o)
_ZN6SdFile4openEPS_jh                             /ICESX/workSpaceC/SmartCarPark/product/code/frontend/dev/SmartCarParkFront-Lib/ATMEGA_LIB/libSmartCarParkFront-Lib.a(SdFile.o)
_ZN6SdFile4readEPvj                               /ICESX/workSpaceC/SmartCarPark/product/code/frontend/dev/SmartCarParkFront-Lib/ATMEGA_LIB/libSmartCarParkFront-Lib.a(SdFile.o)
                                                  /ICESX/workSpaceC/SmartCarPark/product/code/frontend/dev/SmartCarParkFront-Lib/ATMEGA_LIB/libSmartCarParkFront-Lib.a(File.o)
_ZN6SdFile4readEv                                 /ICESX/workSpaceC/SmartCarPark/product/code/frontend/dev/SmartCarParkFront-Lib/ATMEGA_LIB/libSmartCarParkFront-Lib.a(File.o)
_ZN6SdFile4syncEv                                 /ICESX/workSpaceC/SmartCarPark/product/code/frontend/dev/SmartCarParkFront-Lib/ATMEGA_LIB/libSmartCarParkFront-Lib.a(SdFile.o)
                                                  /ICESX/workSpaceC/SmartCarPark/product/code/frontend/dev/SmartCarParkFront-Lib/ATMEGA_LIB/libSmartCarParkFront-Lib.a(File.o)
_ZN6SdFile5closeEv                                /ICESX/workSpaceC/SmartCarPark/product/code/frontend/dev/SmartCarParkFront-Lib/ATMEGA_LIB/libSmartCarParkFront-Lib.a(SdFile.o)
                                                  /ICESX/workSpaceC/SmartCarPark/product/code/frontend/dev/SmartCarParkFront-Lib/ATMEGA_LIB/libSmartCarParkFront-Lib.a(SD.o)
                                                  /ICESX/workSpaceC/SmartCarPark/product/code/frontend/dev/SmartCarParkFront-Lib/ATMEGA_LIB/libSmartCarParkFront-Lib.a(File.o)
_ZN6SdFile5rmDirEv                                /ICESX/workSpaceC/SmartCarPark/product/code/frontend/dev/SmartCarParkFront-Lib/ATMEGA_LIB/libSmartCarParkFront-Lib.a(SdFile.o)
                                                  /ICESX/workSpaceC/SmartCarPark/product/code/frontend/dev/SmartCarParkFront-Lib/ATMEGA_LIB/libSmartCarParkFront-Lib.a(SD.o)
_ZN6SdFile5writeEPKc                              /ICESX/workSpaceC/SmartCarPark/product/code/frontend/dev/SmartCarParkFront-Lib/ATMEGA_LIB/libSmartCarParkFront-Lib.a(SdFile.o)
_ZN6SdFile5writeEPKvj                             /ICESX/workSpaceC/SmartCarPark/product/code/frontend/dev/SmartCarParkFront-Lib/ATMEGA_LIB/libSmartCarParkFront-Lib.a(SdFile.o)
                                                  /ICESX/workSpaceC/SmartCarPark/product/code/frontend/dev/SmartCarParkFront-Lib/ATMEGA_LIB/libSmartCarParkFront-Lib.a(File.o)
_ZN6SdFile5writeEh                                /ICESX/workSpaceC/SmartCarPark/product/code/frontend/dev/SmartCarParkFront-Lib/ATMEGA_LIB/libSmartCarParkFront-Lib.a(SdFile.o)
_ZN6SdFile6removeEPS_PKc                          /ICESX/workSpaceC/SmartCarPark/product/code/frontend/dev/SmartCarParkFront-Lib/ATMEGA_LIB/libSmartCarParkFront-Lib.a(SdFile.o)
                                                  /ICESX/workSpaceC/SmartCarPark/product/code/frontend/dev/SmartCarParkFront-Lib/ATMEGA_LIB/libSmartCarParkFront-Lib.a(SD.o)
_ZN6SdFile6removeEv                               /ICESX/workSpaceC/SmartCarPark/product/code/frontend/dev/SmartCarParkFront-Lib/ATMEGA_LIB/libSmartCarParkFront-Lib.a(SdFile.o)
_ZN6SdFile7dirNameERK14directoryEntryPc           /ICESX/workSpaceC/SmartCarPark/product/code/frontend/dev/SmartCarParkFront-Lib/ATMEGA_LIB/libSmartCarParkFront-Lib.a(SdFile.o)
                                                  /ICESX/workSpaceC/SmartCarPark/product/code/frontend/dev/SmartCarParkFront-Lib/ATMEGA_LIB/libSmartCarParkFront-Lib.a(SD.o)
_ZN6SdFile7makeDirEPS_PKc                         /ICESX/workSpaceC/SmartCarPark/product/code/frontend/dev/SmartCarParkFront-Lib/ATMEGA_LIB/libSmartCarParkFront-Lib.a(SdFile.o)
                                                  /ICESX/workSpaceC/SmartCarPark/product/code/frontend/dev/SmartCarParkFront-Lib/ATMEGA_LIB/libSmartCarParkFront-Lib.a(SD.o)
_ZN6SdFile7readDirEP14directoryEntry              /ICESX/workSpaceC/SmartCarPark/product/code/frontend/dev/SmartCarParkFront-Lib/ATMEGA_LIB/libSmartCarParkFront-Lib.a(SdFile.o)
                                                  /ICESX/workSpaceC/SmartCarPark/product/code/frontend/dev/SmartCarParkFront-Lib/ATMEGA_LIB/libSmartCarParkFront-Lib.a(SD.o)
_ZN6SdFile7seekSetEm                              /ICESX/workSpaceC/SmartCarPark/product/code/frontend/dev/SmartCarParkFront-Lib/ATMEGA_LIB/libSmartCarParkFront-Lib.a(SdFile.o)
                                                  /ICESX/workSpaceC/SmartCarPark/product/code/frontend/dev/SmartCarParkFront-Lib/ATMEGA_LIB/libSmartCarParkFront-Lib.a(SD.o)
                                                  /ICESX/workSpaceC/SmartCarPark/product/code/frontend/dev/SmartCarParkFront-Lib/ATMEGA_LIB/libSmartCarParkFront-Lib.a(File.o)
_ZN6SdFile7write_PEPKc                            /ICESX/workSpaceC/SmartCarPark/product/code/frontend/dev/SmartCarParkFront-Lib/ATMEGA_LIB/libSmartCarParkFront-Lib.a(SdFile.o)
_ZN6SdFile8dirEntryEP14directoryEntry             /ICESX/workSpaceC/SmartCarPark/product/code/frontend/dev/SmartCarParkFront-Lib/ATMEGA_LIB/libSmartCarParkFront-Lib.a(SdFile.o)
_ZN6SdFile8openRootEP8SdVolume                    /ICESX/workSpaceC/SmartCarPark/product/code/frontend/dev/SmartCarParkFront-Lib/ATMEGA_LIB/libSmartCarParkFront-Lib.a(SdFile.o)
                                                  /ICESX/workSpaceC/SmartCarPark/product/code/frontend/dev/SmartCarParkFront-Lib/ATMEGA_LIB/libSmartCarParkFront-Lib.a(SD.o)
                                                  /ICESX/workSpaceC/SmartCarPark/product/code/frontend/dev/SmartCarParkFront-Lib-Mine/ATMEGA_LIB/libSmartCarParkFront-Lib-Mine.a(SdCard.o)
_ZN6SdFile8rmRfStarEv                             /ICESX/workSpaceC/SmartCarPark/product/code/frontend/dev/SmartCarParkFront-Lib/ATMEGA_LIB/libSmartCarParkFront-Lib.a(SdFile.o)
_ZN6SdFile8truncateEm                             /ICESX/workSpaceC/SmartCarPark/product/code/frontend/dev/SmartCarParkFront-Lib/ATMEGA_LIB/libSmartCarParkFront-Lib.a(SdFile.o)
_ZN6SdFile9dateTime_E                             /ICESX/workSpaceC/SmartCarPark/product/code/frontend/dev/SmartCarParkFront-Lib/ATMEGA_LIB/libSmartCarParkFront-Lib.a(SdFile.o)
_ZN6SdFile9timestampEhjhhhhh                      /ICESX/workSpaceC/SmartCarPark/product/code/frontend/dev/SmartCarParkFront-Lib/ATMEGA_LIB/libSmartCarParkFront-Lib.a(SdFile.o)
_ZN6SdFile9writeln_PEPKc                          /ICESX/workSpaceC/SmartCarPark/product/code/frontend/dev/SmartCarParkFront-Lib/ATMEGA_LIB/libSmartCarParkFront-Lib.a(SdFile.o)
_ZN6SdFileC1ERKS_                                 /ICESX/workSpaceC/SmartCarPark/product/code/frontend/dev/SmartCarParkFront-Lib/ATMEGA_LIB/libSmartCarParkFront-Lib.a(SD.o)
_ZN6SdFileC2ERKS_                                 /ICESX/workSpaceC/SmartCarPark/product/code/frontend/dev/SmartCarParkFront-Lib/ATMEGA_LIB/libSmartCarParkFront-Lib.a(SD.o)
_ZN7SDClass12getParentDirEPKcPi                   /ICESX/workSpaceC/SmartCarPark/product/code/frontend/dev/SmartCarParkFront-Lib/ATMEGA_LIB/libSmartCarParkFront-Lib.a(SD.o)
_ZN7SDClass4openEPKch                             /ICESX/workSpaceC/SmartCarPark/product/code/frontend/dev/SmartCarParkFront-Lib/ATMEGA_LIB/libSmartCarParkFront-Lib.a(SD.o)
                                                  /ICESX/workSpaceC/SmartCarPark/product/code/frontend/dev/SmartCarParkFront-Lib-Mine/ATMEGA_LIB/libSmartCarParkFront-Lib-Mine.a(SdCard.o)
_ZN7SDClass5beginEh                               /ICESX/workSpaceC/SmartCarPark/product/code/frontend/dev/SmartCarParkFront-Lib/ATMEGA_LIB/libSmartCarParkFront-Lib.a(SD.o)
                                                  /ICESX/workSpaceC/SmartCarPark/product/code/frontend/dev/SmartCarParkFront-Lib-Mine/ATMEGA_LIB/libSmartCarParkFront-Lib-Mine.a(SdCard.o)
_ZN7SDClass5mkdirEPc                              /ICESX/workSpaceC/SmartCarPark/product/code/frontend/dev/SmartCarParkFront-Lib/ATMEGA_LIB/libSmartCarParkFront-Lib.a(SD.o)
_ZN7SDClass5rmdirEPc                              /ICESX/workSpaceC/SmartCarPark/product/code/frontend/dev/SmartCarParkFront-Lib/ATMEGA_LIB/libSmartCarParkFront-Lib.a(SD.o)
_ZN7SDClass6existsEPc                             /ICESX/workSpaceC/SmartCarPark/product/code/frontend/dev/SmartCarParkFront-Lib/ATMEGA_LIB/libSmartCarParkFront-Lib.a(SD.o)
_ZN7SDClass6removeEPc                             /ICESX/workSpaceC/SmartCarPark/product/code/frontend/dev/SmartCarParkFront-Lib/ATMEGA_LIB/libSmartCarParkFront-Lib.a(SD.o)
_ZN7Sd2Card10setSckRateEh                         /ICESX/workSpaceC/SmartCarPark/product/code/frontend/dev/SmartCarParkFront-Lib/ATMEGA_LIB/libSmartCarParkFront-Lib.a(Sd2Card.o)
_ZN7Sd2Card10writeBlockEmPKh                      /ICESX/workSpaceC/SmartCarPark/product/code/frontend/dev/SmartCarParkFront-Lib/ATMEGA_LIB/libSmartCarParkFront-Lib.a(Sd2Card.o)
                                                  /ICESX/workSpaceC/SmartCarPark/product/code/frontend/dev/SmartCarParkFront-Lib/ATMEGA_LIB/libSmartCarParkFront-Lib.a(SdVolume.o)
                                                  /ICESX/workSpaceC/SmartCarPark/product/code/frontend/dev/SmartCarParkFront-Lib/ATMEGA_LIB/libSmartCarParkFront-Lib.a(SdFile.o)
_ZN7Sd2Card10writeStartEmm                        /ICESX/workSpaceC/SmartCarPark/product/code/frontend/dev/SmartCarParkFront-Lib/ATMEGA_LIB/libSmartCarParkFront-Lib.a(Sd2Card.o)
_ZN7Sd2Card11cardCommandEhm                       /ICESX/workSpaceC/SmartCarPark/product/code/frontend/dev/SmartCarParkFront-Lib/ATMEGA_LIB/libSmartCarParkFront-Lib.a(Sd2Card.o)
_ZN7Sd2Card11waitNotBusyEj                        /ICESX/workSpaceC/SmartCarPark/product/code/frontend/dev/SmartCarParkFront-Lib/ATMEGA_LIB/libSmartCarParkFront-Lib.a(Sd2Card.o)
_ZN7Sd2Card12readRegisterEhPv                     /ICESX/workSpaceC/SmartCarPark/product/code/frontend/dev/SmartCarParkFront-Lib/ATMEGA_LIB/libSmartCarParkFront-Lib.a(Sd2Card.o)
_ZN7Sd2Card13chipSelectLowEv                      /ICESX/workSpaceC/SmartCarPark/product/code/frontend/dev/SmartCarParkFront-Lib/ATMEGA_LIB/libSmartCarParkFront-Lib.a(Sd2Card.o)
_ZN7Sd2Card14chipSelectHighEv                     /ICESX/workSpaceC/SmartCarPark/product/code/frontend/dev/SmartCarParkFront-Lib/ATMEGA_LIB/libSmartCarParkFront-Lib.a(Sd2Card.o)
_ZN7Sd2Card14waitStartBlockEv                     /ICESX/workSpaceC/SmartCarPark/product/code/frontend/dev/SmartCarParkFront-Lib/ATMEGA_LIB/libSmartCarParkFront-Lib.a(Sd2Card.o)
_ZN7Sd2Card16partialBlockReadEh                   /ICESX/workSpaceC/SmartCarPark/product/code/frontend/dev/SmartCarParkFront-Lib/ATMEGA_LIB/libSmartCarParkFront-Lib.a(Sd2Card.o)
_ZN7Sd2Card22eraseSingleBlockEnableEv             /ICESX/workSpaceC/SmartCarPark/product/code/frontend/dev/SmartCarParkFront-Lib/ATMEGA_LIB/libSmartCarParkFront-Lib.a(Sd2Card.o)
_ZN7Sd2Card4initEhh                               /ICESX/workSpaceC/SmartCarPark/product/code/frontend/dev/SmartCarParkFront-Lib/ATMEGA_LIB/libSmartCarParkFront-Lib.a(Sd2Card.o)
                                                  /ICESX/workSpaceC/SmartCarPark/product/code/frontend/dev/SmartCarParkFront-Lib/ATMEGA_LIB/libSmartCarParkFront-Lib.a(SD.o)
                                                  /ICESX/workSpaceC/SmartCarPark/product/code/frontend/dev/SmartCarParkFront-Lib-Mine/ATMEGA_LIB/libSmartCarParkFront-Lib-Mine.a(SdCard.o)
_ZN7Sd2Card5eraseEmm                              /ICESX/workSpaceC/SmartCarPark/product/code/frontend/dev/SmartCarParkFront-Lib/ATMEGA_LIB/libSmartCarParkFront-Lib.a(Sd2Card.o)
_ZN7Sd2Card7readEndEv                             /ICESX/workSpaceC/SmartCarPark/product/code/frontend/dev/SmartCarParkFront-Lib/ATMEGA_LIB/libSmartCarParkFront-Lib.a(Sd2Card.o)
_ZN7Sd2Card8cardSizeEv                            /ICESX/workSpaceC/SmartCarPark/product/code/frontend/dev/SmartCarParkFront-Lib/ATMEGA_LIB/libSmartCarParkFront-Lib.a(Sd2Card.o)
_ZN7Sd2Card8readDataEmjjPh                        /ICESX/workSpaceC/SmartCarPark/product/code/frontend/dev/SmartCarParkFront-Lib/ATMEGA_LIB/libSmartCarParkFront-Lib.a(Sd2Card.o)
                                                  /ICESX/workSpaceC/SmartCarPark/product/code/frontend/dev/SmartCarParkFront-Lib/ATMEGA_LIB/libSmartCarParkFront-Lib.a(SdFile.o)
_ZN7Sd2Card9readBlockEmPh                         /ICESX/workSpaceC/SmartCarPark/product/code/frontend/dev/SmartCarParkFront-Lib/ATMEGA_LIB/libSmartCarParkFront-Lib.a(Sd2Card.o)
                                                  /ICESX/workSpaceC/SmartCarPark/product/code/frontend/dev/SmartCarParkFront-Lib/ATMEGA_LIB/libSmartCarParkFront-Lib.a(SdVolume.o)
_ZN7Sd2Card9writeDataEPKh                         /ICESX/workSpaceC/SmartCarPark/product/code/frontend/dev/SmartCarParkFront-Lib/ATMEGA_LIB/libSmartCarParkFront-Lib.a(Sd2Card.o)
_ZN7Sd2Card9writeDataEhPKh                        /ICESX/workSpaceC/SmartCarPark/product/code/frontend/dev/SmartCarParkFront-Lib/ATMEGA_LIB/libSmartCarParkFront-Lib.a(Sd2Card.o)
_ZN7Sd2Card9writeStopEv                           /ICESX/workSpaceC/SmartCarPark/product/code/frontend/dev/SmartCarParkFront-Lib/ATMEGA_LIB/libSmartCarParkFront-Lib.a(Sd2Card.o)
_ZN8SPIClass11initializedE                        /ICESX/workSpaceC/SmartCarPark/product/code/frontend/dev/SmartCarParkFront-Lib/ATMEGA_LIB/libSmartCarParkFront-Lib.a(SPI.o)
_ZN8SPIClass13interruptMaskE                      /ICESX/workSpaceC/SmartCarPark/product/code/frontend/dev/SmartCarParkFront-Lib/ATMEGA_LIB/libSmartCarParkFront-Lib.a(SPI.o)
                                                  /ICESX/workSpaceC/SmartCarPark/product/code/frontend/dev/SmartCarParkFront-Lib/ATMEGA_LIB/libSmartCarParkFront-Lib.a(Sd2Card.o)
_ZN8SPIClass13interruptModeE                      /ICESX/workSpaceC/SmartCarPark/product/code/frontend/dev/SmartCarParkFront-Lib/ATMEGA_LIB/libSmartCarParkFront-Lib.a(SPI.o)
                                                  /ICESX/workSpaceC/SmartCarPark/product/code/frontend/dev/SmartCarParkFront-Lib/ATMEGA_LIB/libSmartCarParkFront-Lib.a(Sd2Card.o)
_ZN8SPIClass13interruptSaveE                      /ICESX/workSpaceC/SmartCarPark/product/code/frontend/dev/SmartCarParkFront-Lib/ATMEGA_LIB/libSmartCarParkFront-Lib.a(SPI.o)
                                                  /ICESX/workSpaceC/SmartCarPark/product/code/frontend/dev/SmartCarParkFront-Lib/ATMEGA_LIB/libSmartCarParkFront-Lib.a(Sd2Card.o)
_ZN8SPIClass14usingInterruptEh                    /ICESX/workSpaceC/SmartCarPark/product/code/frontend/dev/SmartCarParkFront-Lib/ATMEGA_LIB/libSmartCarParkFront-Lib.a(SPI.o)
_ZN8SPIClass16beginTransactionE11SPISettings      /ICESX/workSpaceC/SmartCarPark/product/code/frontend/dev/SmartCarParkFront-Lib/ATMEGA_LIB/libSmartCarParkFront-Lib.a(Sd2Card.o)
_ZN8SPIClass17notUsingInterruptEh                 /ICESX/workSpaceC/SmartCarPark/product/code/frontend/dev/SmartCarParkFront-Lib/ATMEGA_LIB/libSmartCarParkFront-Lib.a(SPI.o)
_ZN8SPIClass3endEv                                /ICESX/workSpaceC/SmartCarPark/product/code/frontend/dev/SmartCarParkFront-Lib/ATMEGA_LIB/libSmartCarParkFront-Lib.a(SPI.o)
_ZN8SPIClass5beginEv                              /ICESX/workSpaceC/SmartCarPark/product/code/frontend/dev/SmartCarParkFront-Lib/ATMEGA_LIB/libSmartCarParkFront-Lib.a(SPI.o)
                                                  /ICESX/workSpaceC/SmartCarPark/product/code/frontend/dev/SmartCarParkFront-Lib/ATMEGA_LIB/libSmartCarParkFront-Lib.a(Sd2Card.o)
_ZN8SPIClass8transferEh                           /ICESX/workSpaceC/SmartCarPark/product/code/frontend/dev/SmartCarParkFront-Lib/ATMEGA_LIB/libSmartCarParkFront-Lib.a(Sd2Card.o)
_ZN8SdVolume10cacheFlushEv                        /ICESX/workSpaceC/SmartCarPark/product/code/frontend/dev/SmartCarParkFront-Lib/ATMEGA_LIB/libSmartCarParkFront-Lib.a(SdVolume.o)
                                                  /ICESX/workSpaceC/SmartCarPark/product/code/frontend/dev/SmartCarParkFront-Lib/ATMEGA_LIB/libSmartCarParkFront-Lib.a(SdFile.o)
_ZN8SdVolume11cacheDirty_E                        /ICESX/workSpaceC/SmartCarPark/product/code/frontend/dev/SmartCarParkFront-Lib/ATMEGA_LIB/libSmartCarParkFront-Lib.a(SdVolume.o)
                                                  /ICESX/workSpaceC/SmartCarPark/product/code/frontend/dev/SmartCarParkFront-Lib/ATMEGA_LIB/libSmartCarParkFront-Lib.a(SdFile.o)
_ZN8SdVolume12cacheBuffer_E                       /ICESX/workSpaceC/SmartCarPark/product/code/frontend/dev/SmartCarParkFront-Lib/ATMEGA_LIB/libSmartCarParkFront-Lib.a(SdVolume.o)
                                                  /ICESX/workSpaceC/SmartCarPark/product/code/frontend/dev/SmartCarParkFront-Lib/ATMEGA_LIB/libSmartCarParkFront-Lib.a(SdFile.o)
_ZN8SdVolume13cacheRawBlockEmh                    /ICESX/workSpaceC/SmartCarPark/product/code/frontend/dev/SmartCarParkFront-Lib/ATMEGA_LIB/libSmartCarParkFront-Lib.a(SdVolume.o)
                                                  /ICESX/workSpaceC/SmartCarPark/product/code/frontend/dev/SmartCarParkFront-Lib/ATMEGA_LIB/libSmartCarParkFront-Lib.a(SdFile.o)
_ZN8SdVolume14cacheZeroBlockEm                    /ICESX/workSpaceC/SmartCarPark/product/code/frontend/dev/SmartCarParkFront-Lib/ATMEGA_LIB/libSmartCarParkFront-Lib.a(SdVolume.o)
                                                  /ICESX/workSpaceC/SmartCarPark/product/code/frontend/dev/SmartCarParkFront-Lib/ATMEGA_LIB/libSmartCarParkFront-Lib.a(SdFile.o)
_ZN8SdVolume15allocContiguousEmPm                 /ICESX/workSpaceC/SmartCarPark/product/code/frontend/dev/SmartCarParkFront-Lib/ATMEGA_LIB/libSmartCarParkFront-Lib.a(SdVolume.o)
                                                  /ICESX/workSpaceC/SmartCarPark/product/code/frontend/dev/SmartCarParkFront-Lib/ATMEGA_LIB/libSmartCarParkFront-Lib.a(SdFile.o)
_ZN8SdVolume17cacheBlockNumber_E                  /ICESX/workSpaceC/SmartCarPark/product/code/frontend/dev/SmartCarParkFront-Lib/ATMEGA_LIB/libSmartCarParkFront-Lib.a(SdVolume.o)
                                                  /ICESX/workSpaceC/SmartCarPark/product/code/frontend/dev/SmartCarParkFront-Lib/ATMEGA_LIB/libSmartCarParkFront-Lib.a(SdFile.o)
_ZN8SdVolume17cacheMirrorBlock_E                  /ICESX/workSpaceC/SmartCarPark/product/code/frontend/dev/SmartCarParkFront-Lib/ATMEGA_LIB/libSmartCarParkFront-Lib.a(SdVolume.o)
_ZN8SdVolume4initEP7Sd2Cardh                      /ICESX/workSpaceC/SmartCarPark/product/code/frontend/dev/SmartCarParkFront-Lib/ATMEGA_LIB/libSmartCarParkFront-Lib.a(SdVolume.o)
                                                  /ICESX/workSpaceC/SmartCarPark/product/code/frontend/dev/SmartCarParkFront-Lib/ATMEGA_LIB/libSmartCarParkFront-Lib.a(SD.o)
                                                  /ICESX/workSpaceC/SmartCarPark/product/code/frontend/dev/SmartCarParkFront-Lib-Mine/ATMEGA_LIB/libSmartCarParkFront-Lib-Mine.a(SdCard.o)
_ZN8SdVolume6fatPutEmm                            /ICESX/workSpaceC/SmartCarPark/product/code/frontend/dev/SmartCarParkFront-Lib/ATMEGA_LIB/libSmartCarParkFront-Lib.a(SdVolume.o)
                                                  /ICESX/workSpaceC/SmartCarPark/product/code/frontend/dev/SmartCarParkFront-Lib/ATMEGA_LIB/libSmartCarParkFront-Lib.a(SdFile.o)
_ZN8SdVolume7sdCard_E                             /ICESX/workSpaceC/SmartCarPark/product/code/frontend/dev/SmartCarParkFront-Lib/ATMEGA_LIB/libSmartCarParkFront-Lib.a(SdVolume.o)
                                                  /ICESX/workSpaceC/SmartCarPark/product/code/frontend/dev/SmartCarParkFront-Lib/ATMEGA_LIB/libSmartCarParkFront-Lib.a(SdFile.o)
_ZN8SdVolume9freeChainEm                          /ICESX/workSpaceC/SmartCarPark/product/code/frontend/dev/SmartCarParkFront-Lib/ATMEGA_LIB/libSmartCarParkFront-Lib.a(SdVolume.o)
                                                  /ICESX/workSpaceC/SmartCarPark/product/code/frontend/dev/SmartCarParkFront-Lib/ATMEGA_LIB/libSmartCarParkFront-Lib.a(SdFile.o)
_ZN9IPAddressC1EPKh                               /ICESX/workSpaceC/SmartCarPark/product/code/frontend/dev/SmartCarParkFront-Lib/ATMEGA_LIB/libSmartCarParkFront-Lib.a(IPAddress.o)
_ZN9IPAddressC1Ehhhh                              /ICESX/workSpaceC/SmartCarPark/product/code/frontend/dev/SmartCarParkFront-Lib/ATMEGA_LIB/libSmartCarParkFront-Lib.a(IPAddress.o)
                                                  ./src/SmartCarPark.o
_ZN9IPAddressC1Em                                 /ICESX/workSpaceC/SmartCarPark/product/code/frontend/dev/SmartCarParkFront-Lib/ATMEGA_LIB/libSmartCarParkFront-Lib.a(IPAddress.o)
_ZN9IPAddressC1Ev                                 /ICESX/workSpaceC/SmartCarPark/product/code/frontend/dev/SmartCarParkFront-Lib/ATMEGA_LIB/libSmartCarParkFront-Lib.a(IPAddress.o)
_ZN9IPAddressC2EPKh                               /ICESX/workSpaceC/SmartCarPark/product/code/frontend/dev/SmartCarParkFront-Lib/ATMEGA_LIB/libSmartCarParkFront-Lib.a(IPAddress.o)
_ZN9IPAddressC2Ehhhh                              /ICESX/workSpaceC/SmartCarPark/product/code/frontend/dev/SmartCarParkFront-Lib/ATMEGA_LIB/libSmartCarParkFront-Lib.a(IPAddress.o)
_ZN9IPAddressC2Em                                 /ICESX/workSpaceC/SmartCarPark/product/code/frontend/dev/SmartCarParkFront-Lib/ATMEGA_LIB/libSmartCarParkFront-Lib.a(IPAddress.o)
_ZN9IPAddressC2Ev                                 /ICESX/workSpaceC/SmartCarPark/product/code/frontend/dev/SmartCarParkFront-Lib/ATMEGA_LIB/libSmartCarParkFront-Lib.a(IPAddress.o)
_ZN9IPAddressaSEPKh                               /ICESX/workSpaceC/SmartCarPark/product/code/frontend/dev/SmartCarParkFront-Lib/ATMEGA_LIB/libSmartCarParkFront-Lib.a(IPAddress.o)
_ZN9IPAddressaSEm                                 /ICESX/workSpaceC/SmartCarPark/product/code/frontend/dev/SmartCarParkFront-Lib/ATMEGA_LIB/libSmartCarParkFront-Lib.a(IPAddress.o)
_ZNK8SdVolume6fatGetEmPm                          /ICESX/workSpaceC/SmartCarPark/product/code/frontend/dev/SmartCarParkFront-Lib/ATMEGA_LIB/libSmartCarParkFront-Lib.a(SdVolume.o)
                                                  /ICESX/workSpaceC/SmartCarPark/product/code/frontend/dev/SmartCarParkFront-Lib/ATMEGA_LIB/libSmartCarParkFront-Lib.a(SdFile.o)
_ZNK8SdVolume9chainSizeEmPm                       /ICESX/workSpaceC/SmartCarPark/product/code/frontend/dev/SmartCarParkFront-Lib/ATMEGA_LIB/libSmartCarParkFront-Lib.a(SdVolume.o)
                                                  /ICESX/workSpaceC/SmartCarPark/product/code/frontend/dev/SmartCarParkFront-Lib/ATMEGA_LIB/libSmartCarParkFront-Lib.a(SdFile.o)
_ZNK9IPAddress7printToER5Print                    /ICESX/workSpaceC/SmartCarPark/product/code/frontend/dev/SmartCarParkFront-Lib/ATMEGA_LIB/libSmartCarParkFront-Lib.a(IPAddress.o)
_ZNK9IPAddresseqEPKh                              /ICESX/workSpaceC/SmartCarPark/product/code/frontend/dev/SmartCarParkFront-Lib/ATMEGA_LIB/libSmartCarParkFront-Lib.a(IPAddress.o)
_ZTV14HardwareSerial                              /ICESX/workSpaceC/SmartCarPark/product/code/frontend/dev/SmartCarParkFront-Lib/ATMEGA_LIB/libSmartCarParkFront-Lib.a(HardwareSerial.o)
                                                  /ICESX/workSpaceC/SmartCarPark/product/code/frontend/dev/SmartCarParkFront-Lib/ATMEGA_LIB/libSmartCarParkFront-Lib.a(HardwareSerial0.o)
_ZTV14SoftwareSerial                              /ICESX/workSpaceC/SmartCarPark/product/code/frontend/dev/SmartCarParkFront-Lib/ATMEGA_LIB/libSmartCarParkFront-Lib.a(SoftwareSerial.o)
_ZTV4File                                         /ICESX/workSpaceC/SmartCarPark/product/code/frontend/dev/SmartCarParkFront-Lib/ATMEGA_LIB/libSmartCarParkFront-Lib.a(File.o)
_ZTV5Print                                        /ICESX/workSpaceC/SmartCarPark/product/code/frontend/dev/SmartCarParkFront-Lib/ATMEGA_LIB/libSmartCarParkFront-Lib.a(Print.o)
_ZTV6SdFile                                       /ICESX/workSpaceC/SmartCarPark/product/code/frontend/dev/SmartCarParkFront-Lib/ATMEGA_LIB/libSmartCarParkFront-Lib.a(SdFile.o)
                                                  /ICESX/workSpaceC/SmartCarPark/product/code/frontend/dev/SmartCarParkFront-Lib/ATMEGA_LIB/libSmartCarParkFront-Lib.a(SD.o)
                                                  ./src/SmartCarPark.o
_ZTV6Stream                                       /ICESX/workSpaceC/SmartCarPark/product/code/frontend/dev/SmartCarParkFront-Lib/ATMEGA_LIB/libSmartCarParkFront-Lib.a(SoftwareSerial.o)
                                                  /ICESX/workSpaceC/SmartCarPark/product/code/frontend/dev/SmartCarParkFront-Lib/ATMEGA_LIB/libSmartCarParkFront-Lib.a(File.o)
_ZTV9IPAddress                                    /ICESX/workSpaceC/SmartCarPark/product/code/frontend/dev/SmartCarParkFront-Lib/ATMEGA_LIB/libSmartCarParkFront-Lib.a(IPAddress.o)
_ZTV9Printable                                    /ICESX/workSpaceC/SmartCarPark/product/code/frontend/dev/SmartCarParkFront-Lib/ATMEGA_LIB/libSmartCarParkFront-Lib.a(IPAddress.o)
__addsf3                                          /TOOLS/software/arduino-1.6.5/hardware/tools/avr/bin/../lib/gcc/avr/4.8.1/../../../../avr/lib/avr6/libm.a(addsf3.o)
                                                  /ICESX/workSpaceC/SmartCarPark/product/code/frontend/dev/SmartCarParkFront-Lib/ATMEGA_LIB/libSmartCarParkFront-Lib.a(Print.o)
__addsf3x                                         /TOOLS/software/arduino-1.6.5/hardware/tools/avr/bin/../lib/gcc/avr/4.8.1/../../../../avr/lib/avr6/libm.a(addsf3x.o)
                                                  /TOOLS/software/arduino-1.6.5/hardware/tools/avr/bin/../lib/gcc/avr/4.8.1/../../../../avr/lib/avr6/libm.a(addsf3.o)
__bad_interrupt                                   /TOOLS/software/arduino-1.6.5/hardware/tools/avr/bin/../lib/gcc/avr/4.8.1/../../../../avr/lib/avr6/crtm2560.o
__brkval                                          /TOOLS/software/arduino-1.6.5/hardware/tools/avr/bin/../lib/gcc/avr/4.8.1/../../../../avr/lib/avr6/libc.a(malloc.o)
__bss_end                                         /TOOLS/software/arduino-1.6.5/hardware/tools/avr/bin/../lib/gcc/avr/4.8.1/avr6/libgcc.a(_clear_bss.o)
__bss_start                                       /TOOLS/software/arduino-1.6.5/hardware/tools/avr/bin/../lib/gcc/avr/4.8.1/avr6/libgcc.a(_clear_bss.o)
__cmpsf2                                          /TOOLS/software/arduino-1.6.5/hardware/tools/avr/bin/../lib/gcc/avr/4.8.1/../../../../avr/lib/avr6/libm.a(cmpsf2.o)
__ctors_end                                       /TOOLS/software/arduino-1.6.5/hardware/tools/avr/bin/../lib/gcc/avr/4.8.1/avr6/libgcc.a(_ctors.o)
__ctors_start                                     /TOOLS/software/arduino-1.6.5/hardware/tools/avr/bin/../lib/gcc/avr/4.8.1/avr6/libgcc.a(_ctors.o)
__cxa_deleted_virtual                             /ICESX/workSpaceC/SmartCarPark/product/code/frontend/dev/SmartCarParkFront-Lib/ATMEGA_LIB/libSmartCarParkFront-Lib.a(abi.o)
__cxa_pure_virtual                                /ICESX/workSpaceC/SmartCarPark/product/code/frontend/dev/SmartCarParkFront-Lib/ATMEGA_LIB/libSmartCarParkFront-Lib.a(abi.o)
                                                  /ICESX/workSpaceC/SmartCarPark/product/code/frontend/dev/SmartCarParkFront-Lib/ATMEGA_LIB/libSmartCarParkFront-Lib.a(File.o)
                                                  /ICESX/workSpaceC/SmartCarPark/product/code/frontend/dev/SmartCarParkFront-Lib/ATMEGA_LIB/libSmartCarParkFront-Lib.a(SoftwareSerial.o)
                                                  /ICESX/workSpaceC/SmartCarPark/product/code/frontend/dev/SmartCarParkFront-Lib/ATMEGA_LIB/libSmartCarParkFront-Lib.a(Print.o)
                                                  /ICESX/workSpaceC/SmartCarPark/product/code/frontend/dev/SmartCarParkFront-Lib/ATMEGA_LIB/libSmartCarParkFront-Lib.a(IPAddress.o)
__data_end                                        /TOOLS/software/arduino-1.6.5/hardware/tools/avr/bin/../lib/gcc/avr/4.8.1/avr6/libgcc.a(_copy_data.o)
__data_load_start                                 /TOOLS/software/arduino-1.6.5/hardware/tools/avr/bin/../lib/gcc/avr/4.8.1/avr6/libgcc.a(_copy_data.o)
__data_start                                      /TOOLS/software/arduino-1.6.5/hardware/tools/avr/bin/../lib/gcc/avr/4.8.1/avr6/libgcc.a(_copy_data.o)
__divmodhi4                                       /TOOLS/software/arduino-1.6.5/hardware/tools/avr/bin/../lib/gcc/avr/4.8.1/avr6/libgcc.a(_divmodhi4.o)
                                                  /ICESX/workSpaceC/SmartCarPark/product/code/frontend/dev/SmartCarParkFront-Lib/ATMEGA_LIB/libSmartCarParkFront-Lib.a(SoftwareSerial.o)
__divmodsi4                                       /TOOLS/software/arduino-1.6.5/hardware/tools/avr/bin/../lib/gcc/avr/4.8.1/avr6/libgcc.a(_divmodsi4.o)
                                                  /ICESX/workSpaceC/SmartCarPark/product/code/frontend/dev/SmartCarParkFront-Lib/ATMEGA_LIB/libSmartCarParkFront-Lib.a(SoftwareSerial.o)
__divsf3                                          /TOOLS/software/arduino-1.6.5/hardware/tools/avr/bin/../lib/gcc/avr/4.8.1/../../../../avr/lib/avr6/libm.a(divsf3.o)
                                                  /ICESX/workSpaceC/SmartCarPark/product/code/frontend/dev/SmartCarParkFront-Lib/ATMEGA_LIB/libSmartCarParkFront-Lib.a(Print.o)
__divsf3_pse                                      /TOOLS/software/arduino-1.6.5/hardware/tools/avr/bin/../lib/gcc/avr/4.8.1/../../../../avr/lib/avr6/libm.a(divsf3x.o)
__divsf3x                                         /TOOLS/software/arduino-1.6.5/hardware/tools/avr/bin/../lib/gcc/avr/4.8.1/../../../../avr/lib/avr6/libm.a(divsf3x.o)
                                                  /TOOLS/software/arduino-1.6.5/hardware/tools/avr/bin/../lib/gcc/avr/4.8.1/../../../../avr/lib/avr6/libm.a(divsf3.o)
__do_clear_bss                                    /TOOLS/software/arduino-1.6.5/hardware/tools/avr/bin/../lib/gcc/avr/4.8.1/avr6/libgcc.a(_clear_bss.o)
                                                  /TOOLS/software/arduino-1.6.5/hardware/tools/avr/bin/../lib/gcc/avr/4.8.1/../../../../avr/lib/avr6/libc.a(malloc.o)
                                                  /ICESX/workSpaceC/SmartCarPark/product/code/frontend/dev/SmartCarParkFront-Lib/ATMEGA_LIB/libSmartCarParkFront-Lib.a(SPI.o)
                                                  /ICESX/workSpaceC/SmartCarPark/product/code/frontend/dev/SmartCarParkFront-Lib/ATMEGA_LIB/libSmartCarParkFront-Lib.a(SD.o)
                                                  /ICESX/workSpaceC/SmartCarPark/product/code/frontend/dev/SmartCarParkFront-Lib/ATMEGA_LIB/libSmartCarParkFront-Lib.a(SdVolume.o)
                                                  /ICESX/workSpaceC/SmartCarPark/product/code/frontend/dev/SmartCarParkFront-Lib/ATMEGA_LIB/libSmartCarParkFront-Lib.a(SdFile.o)
                                                  /ICESX/workSpaceC/SmartCarPark/product/code/frontend/dev/SmartCarParkFront-Lib/ATMEGA_LIB/libSmartCarParkFront-Lib.a(Sd2Card.o)
                                                  /ICESX/workSpaceC/SmartCarPark/product/code/frontend/dev/SmartCarParkFront-Lib/ATMEGA_LIB/libSmartCarParkFront-Lib.a(SoftwareSerial.o)
                                                  /ICESX/workSpaceC/SmartCarPark/product/code/frontend/dev/SmartCarParkFront-Lib/ATMEGA_LIB/libSmartCarParkFront-Lib.a(wiring.o)
                                                  /ICESX/workSpaceC/SmartCarPark/product/code/frontend/dev/SmartCarParkFront-Lib/ATMEGA_LIB/libSmartCarParkFront-Lib.a(IPAddress.o)
                                                  /ICESX/workSpaceC/SmartCarPark/product/code/frontend/dev/SmartCarParkFront-Lib/ATMEGA_LIB/libSmartCarParkFront-Lib.a(HardwareSerial0.o)
                                                  ./src/SmartCarPark.o
__do_copy_data                                    /TOOLS/software/arduino-1.6.5/hardware/tools/avr/bin/../lib/gcc/avr/4.8.1/avr6/libgcc.a(_copy_data.o)
                                                  /TOOLS/software/arduino-1.6.5/hardware/tools/avr/bin/../lib/gcc/avr/4.8.1/../../../../avr/lib/avr6/libc.a(malloc.o)
                                                  /ICESX/workSpaceC/SmartCarPark/product/code/frontend/dev/SmartCarParkFront-Lib/ATMEGA_LIB/libSmartCarParkFront-Lib.a(SPI.o)
                                                  /ICESX/workSpaceC/SmartCarPark/product/code/frontend/dev/SmartCarParkFront-Lib/ATMEGA_LIB/libSmartCarParkFront-Lib.a(SD.o)
                                                  /ICESX/workSpaceC/SmartCarPark/product/code/frontend/dev/SmartCarParkFront-Lib/ATMEGA_LIB/libSmartCarParkFront-Lib.a(File.o)
                                                  /ICESX/workSpaceC/SmartCarPark/product/code/frontend/dev/SmartCarParkFront-Lib/ATMEGA_LIB/libSmartCarParkFront-Lib.a(SdVolume.o)
                                                  /ICESX/workSpaceC/SmartCarPark/product/code/frontend/dev/SmartCarParkFront-Lib/ATMEGA_LIB/libSmartCarParkFront-Lib.a(SdFile.o)
                                                  /ICESX/workSpaceC/SmartCarPark/product/code/frontend/dev/SmartCarParkFront-Lib/ATMEGA_LIB/libSmartCarParkFront-Lib.a(SoftwareSerial.o)
                                                  /ICESX/workSpaceC/SmartCarPark/product/code/frontend/dev/SmartCarParkFront-Lib/ATMEGA_LIB/libSmartCarParkFront-Lib.a(Print.o)
                                                  /ICESX/workSpaceC/SmartCarPark/product/code/frontend/dev/SmartCarParkFront-Lib/ATMEGA_LIB/libSmartCarParkFront-Lib.a(IPAddress.o)
                                                  /ICESX/workSpaceC/SmartCarPark/product/code/frontend/dev/SmartCarParkFront-Lib/ATMEGA_LIB/libSmartCarParkFront-Lib.a(HardwareSerial.o)
                                                  /ICESX/workSpaceC/SmartCarPark/product/code/frontend/dev/SmartCarParkFront-Lib-Mine/ATMEGA_LIB/libSmartCarParkFront-Lib-Mine.a(SdCard.o)
                                                  ./src/SmartCarPark.o
__do_global_ctors                                 /TOOLS/software/arduino-1.6.5/hardware/tools/avr/bin/../lib/gcc/avr/4.8.1/avr6/libgcc.a(_ctors.o)
                                                  /ICESX/workSpaceC/SmartCarPark/product/code/frontend/dev/SmartCarParkFront-Lib/ATMEGA_LIB/libSmartCarParkFront-Lib.a(SD.o)
                                                  /ICESX/workSpaceC/SmartCarPark/product/code/frontend/dev/SmartCarParkFront-Lib/ATMEGA_LIB/libSmartCarParkFront-Lib.a(Sd2Card.o)
                                                  /ICESX/workSpaceC/SmartCarPark/product/code/frontend/dev/SmartCarParkFront-Lib/ATMEGA_LIB/libSmartCarParkFront-Lib.a(IPAddress.o)
                                                  /ICESX/workSpaceC/SmartCarPark/product/code/frontend/dev/SmartCarParkFront-Lib/ATMEGA_LIB/libSmartCarParkFront-Lib.a(HardwareSerial0.o)
                                                  ./src/SmartCarPark.o
__do_global_dtors                                 /TOOLS/software/arduino-1.6.5/hardware/tools/avr/bin/../lib/gcc/avr/4.8.1/avr6/libgcc.a(_dtors.o)
                                                  ./src/SmartCarPark.o
__dtors_end                                       /TOOLS/software/arduino-1.6.5/hardware/tools/avr/bin/../lib/gcc/avr/4.8.1/avr6/libgcc.a(_dtors.o)
__dtors_start                                     /TOOLS/software/arduino-1.6.5/hardware/tools/avr/bin/../lib/gcc/avr/4.8.1/avr6/libgcc.a(_dtors.o)
__eqsf2                                           /TOOLS/software/arduino-1.6.5/hardware/tools/avr/bin/../lib/gcc/avr/4.8.1/../../../../avr/lib/avr6/libm.a(cmpsf2.o)
__fixsfsi                                         /TOOLS/software/arduino-1.6.5/hardware/tools/avr/bin/../lib/gcc/avr/4.8.1/../../../../avr/lib/avr6/libm.a(fixsfsi.o)
                                                  /ICESX/workSpaceC/SmartCarPark/product/code/frontend/dev/SmartCarParkFront-Lib/ATMEGA_LIB/libSmartCarParkFront-Lib.a(Print.o)
__fixunssfsi                                      /TOOLS/software/arduino-1.6.5/hardware/tools/avr/bin/../lib/gcc/avr/4.8.1/../../../../avr/lib/avr6/libm.a(fixunssfsi.o)
                                                  /TOOLS/software/arduino-1.6.5/hardware/tools/avr/bin/../lib/gcc/avr/4.8.1/../../../../avr/lib/avr6/libm.a(fixsfsi.o)
                                                  /ICESX/workSpaceC/SmartCarPark/product/code/frontend/dev/SmartCarParkFront-Lib/ATMEGA_LIB/libSmartCarParkFront-Lib.a(Print.o)
__floatsisf                                       /TOOLS/software/arduino-1.6.5/hardware/tools/avr/bin/../lib/gcc/avr/4.8.1/../../../../avr/lib/avr6/libm.a(floatsisf.o)
                                                  /ICESX/workSpaceC/SmartCarPark/product/code/frontend/dev/SmartCarParkFront-Lib/ATMEGA_LIB/libSmartCarParkFront-Lib.a(Print.o)
__floatunsisf                                     /TOOLS/software/arduino-1.6.5/hardware/tools/avr/bin/../lib/gcc/avr/4.8.1/../../../../avr/lib/avr6/libm.a(floatsisf.o)
                                                  /ICESX/workSpaceC/SmartCarPark/product/code/frontend/dev/SmartCarParkFront-Lib/ATMEGA_LIB/libSmartCarParkFront-Lib.a(Print.o)
__flp                                             /TOOLS/software/arduino-1.6.5/hardware/tools/avr/bin/../lib/gcc/avr/4.8.1/../../../../avr/lib/avr6/libc.a(malloc.o)
__fp_cmp                                          /TOOLS/software/arduino-1.6.5/hardware/tools/avr/bin/../lib/gcc/avr/4.8.1/../../../../avr/lib/avr6/libm.a(fp_cmp.o)
                                                  /TOOLS/software/arduino-1.6.5/hardware/tools/avr/bin/../lib/gcc/avr/4.8.1/../../../../avr/lib/avr6/libm.a(unordsf2.o)
                                                  /TOOLS/software/arduino-1.6.5/hardware/tools/avr/bin/../lib/gcc/avr/4.8.1/../../../../avr/lib/avr6/libm.a(gesf2.o)
                                                  /TOOLS/software/arduino-1.6.5/hardware/tools/avr/bin/../lib/gcc/avr/4.8.1/../../../../avr/lib/avr6/libm.a(cmpsf2.o)
__fp_inf                                          /TOOLS/software/arduino-1.6.5/hardware/tools/avr/bin/../lib/gcc/avr/4.8.1/../../../../avr/lib/avr6/libm.a(fp_inf.o)
                                                  /TOOLS/software/arduino-1.6.5/hardware/tools/avr/bin/../lib/gcc/avr/4.8.1/../../../../avr/lib/avr6/libm.a(mulsf3x.o)
                                                  /TOOLS/software/arduino-1.6.5/hardware/tools/avr/bin/../lib/gcc/avr/4.8.1/../../../../avr/lib/avr6/libm.a(divsf3x.o)
                                                  /TOOLS/software/arduino-1.6.5/hardware/tools/avr/bin/../lib/gcc/avr/4.8.1/../../../../avr/lib/avr6/libm.a(addsf3x.o)
__fp_nan                                          /TOOLS/software/arduino-1.6.5/hardware/tools/avr/bin/../lib/gcc/avr/4.8.1/../../../../avr/lib/avr6/libm.a(fp_nan.o)
                                                  /TOOLS/software/arduino-1.6.5/hardware/tools/avr/bin/../lib/gcc/avr/4.8.1/../../../../avr/lib/avr6/libm.a(mulsf3x.o)
                                                  /TOOLS/software/arduino-1.6.5/hardware/tools/avr/bin/../lib/gcc/avr/4.8.1/../../../../avr/lib/avr6/libm.a(divsf3x.o)
                                                  /TOOLS/software/arduino-1.6.5/hardware/tools/avr/bin/../lib/gcc/avr/4.8.1/../../../../avr/lib/avr6/libm.a(addsf3x.o)
__fp_pscA                                         /TOOLS/software/arduino-1.6.5/hardware/tools/avr/bin/../lib/gcc/avr/4.8.1/../../../../avr/lib/avr6/libm.a(fp_pscA.o)
                                                  /TOOLS/software/arduino-1.6.5/hardware/tools/avr/bin/../lib/gcc/avr/4.8.1/../../../../avr/lib/avr6/libm.a(mulsf3x.o)
                                                  /TOOLS/software/arduino-1.6.5/hardware/tools/avr/bin/../lib/gcc/avr/4.8.1/../../../../avr/lib/avr6/libm.a(divsf3x.o)
                                                  /TOOLS/software/arduino-1.6.5/hardware/tools/avr/bin/../lib/gcc/avr/4.8.1/../../../../avr/lib/avr6/libm.a(addsf3x.o)
__fp_pscB                                         /TOOLS/software/arduino-1.6.5/hardware/tools/avr/bin/../lib/gcc/avr/4.8.1/../../../../avr/lib/avr6/libm.a(fp_pscB.o)
                                                  /TOOLS/software/arduino-1.6.5/hardware/tools/avr/bin/../lib/gcc/avr/4.8.1/../../../../avr/lib/avr6/libm.a(mulsf3x.o)
                                                  /TOOLS/software/arduino-1.6.5/hardware/tools/avr/bin/../lib/gcc/avr/4.8.1/../../../../avr/lib/avr6/libm.a(divsf3x.o)
                                                  /TOOLS/software/arduino-1.6.5/hardware/tools/avr/bin/../lib/gcc/avr/4.8.1/../../../../avr/lib/avr6/libm.a(addsf3x.o)
__fp_round                                        /TOOLS/software/arduino-1.6.5/hardware/tools/avr/bin/../lib/gcc/avr/4.8.1/../../../../avr/lib/avr6/libm.a(fp_round.o)
                                                  /TOOLS/software/arduino-1.6.5/hardware/tools/avr/bin/../lib/gcc/avr/4.8.1/../../../../avr/lib/avr6/libm.a(mulsf3.o)
                                                  /TOOLS/software/arduino-1.6.5/hardware/tools/avr/bin/../lib/gcc/avr/4.8.1/../../../../avr/lib/avr6/libm.a(divsf3.o)
                                                  /TOOLS/software/arduino-1.6.5/hardware/tools/avr/bin/../lib/gcc/avr/4.8.1/../../../../avr/lib/avr6/libm.a(addsf3.o)
__fp_split3                                       /TOOLS/software/arduino-1.6.5/hardware/tools/avr/bin/../lib/gcc/avr/4.8.1/../../../../avr/lib/avr6/libm.a(fp_split3.o)
                                                  /TOOLS/software/arduino-1.6.5/hardware/tools/avr/bin/../lib/gcc/avr/4.8.1/../../../../avr/lib/avr6/libm.a(mulsf3x.o)
                                                  /TOOLS/software/arduino-1.6.5/hardware/tools/avr/bin/../lib/gcc/avr/4.8.1/../../../../avr/lib/avr6/libm.a(divsf3x.o)
                                                  /TOOLS/software/arduino-1.6.5/hardware/tools/avr/bin/../lib/gcc/avr/4.8.1/../../../../avr/lib/avr6/libm.a(addsf3x.o)
__fp_splitA                                       /TOOLS/software/arduino-1.6.5/hardware/tools/avr/bin/../lib/gcc/avr/4.8.1/../../../../avr/lib/avr6/libm.a(fp_split3.o)
                                                  /TOOLS/software/arduino-1.6.5/hardware/tools/avr/bin/../lib/gcc/avr/4.8.1/../../../../avr/lib/avr6/libm.a(fixunssfsi.o)
__fp_szero                                        /TOOLS/software/arduino-1.6.5/hardware/tools/avr/bin/../lib/gcc/avr/4.8.1/../../../../avr/lib/avr6/libm.a(fp_zero.o)
                                                  /TOOLS/software/arduino-1.6.5/hardware/tools/avr/bin/../lib/gcc/avr/4.8.1/../../../../avr/lib/avr6/libm.a(mulsf3x.o)
                                                  /TOOLS/software/arduino-1.6.5/hardware/tools/avr/bin/../lib/gcc/avr/4.8.1/../../../../avr/lib/avr6/libm.a(fixsfsi.o)
                                                  /TOOLS/software/arduino-1.6.5/hardware/tools/avr/bin/../lib/gcc/avr/4.8.1/../../../../avr/lib/avr6/libm.a(divsf3x.o)
__fp_zero                                         /TOOLS/software/arduino-1.6.5/hardware/tools/avr/bin/../lib/gcc/avr/4.8.1/../../../../avr/lib/avr6/libm.a(fp_zero.o)
                                                  /TOOLS/software/arduino-1.6.5/hardware/tools/avr/bin/../lib/gcc/avr/4.8.1/../../../../avr/lib/avr6/libm.a(fixunssfsi.o)
                                                  /TOOLS/software/arduino-1.6.5/hardware/tools/avr/bin/../lib/gcc/avr/4.8.1/../../../../avr/lib/avr6/libm.a(addsf3x.o)
__gesf2                                           /TOOLS/software/arduino-1.6.5/hardware/tools/avr/bin/../lib/gcc/avr/4.8.1/../../../../avr/lib/avr6/libm.a(gesf2.o)
__gtsf2                                           /TOOLS/software/arduino-1.6.5/hardware/tools/avr/bin/../lib/gcc/avr/4.8.1/../../../../avr/lib/avr6/libm.a(gesf2.o)
                                                  /ICESX/workSpaceC/SmartCarPark/product/code/frontend/dev/SmartCarParkFront-Lib/ATMEGA_LIB/libSmartCarParkFront-Lib.a(Print.o)
__heap_end                                        /TOOLS/software/arduino-1.6.5/hardware/tools/avr/bin/../lib/gcc/avr/4.8.1/../../../../avr/lib/avr6/crtm2560.o
                                                  /TOOLS/software/arduino-1.6.5/hardware/tools/avr/bin/../lib/gcc/avr/4.8.1/../../../../avr/lib/avr6/libc.a(malloc.o)
__heap_start                                      /TOOLS/software/arduino-1.6.5/hardware/tools/avr/bin/../lib/gcc/avr/4.8.1/../../../../avr/lib/avr6/libc.a(malloc.o)
__init                                            /TOOLS/software/arduino-1.6.5/hardware/tools/avr/bin/../lib/gcc/avr/4.8.1/../../../../avr/lib/avr6/crtm2560.o
__lesf2                                           /TOOLS/software/arduino-1.6.5/hardware/tools/avr/bin/../lib/gcc/avr/4.8.1/../../../../avr/lib/avr6/libm.a(cmpsf2.o)
                                                  /ICESX/workSpaceC/SmartCarPark/product/code/frontend/dev/SmartCarParkFront-Lib/ATMEGA_LIB/libSmartCarParkFront-Lib.a(Print.o)
__ltsf2                                           /TOOLS/software/arduino-1.6.5/hardware/tools/avr/bin/../lib/gcc/avr/4.8.1/../../../../avr/lib/avr6/libm.a(cmpsf2.o)
                                                  /ICESX/workSpaceC/SmartCarPark/product/code/frontend/dev/SmartCarParkFront-Lib/ATMEGA_LIB/libSmartCarParkFront-Lib.a(Print.o)
__malloc_heap_end                                 /TOOLS/software/arduino-1.6.5/hardware/tools/avr/bin/../lib/gcc/avr/4.8.1/../../../../avr/lib/avr6/libc.a(malloc.o)
__malloc_heap_start                               /TOOLS/software/arduino-1.6.5/hardware/tools/avr/bin/../lib/gcc/avr/4.8.1/../../../../avr/lib/avr6/libc.a(malloc.o)
__malloc_margin                                   /TOOLS/software/arduino-1.6.5/hardware/tools/avr/bin/../lib/gcc/avr/4.8.1/../../../../avr/lib/avr6/libc.a(malloc.o)
__mulsf3                                          /TOOLS/software/arduino-1.6.5/hardware/tools/avr/bin/../lib/gcc/avr/4.8.1/../../../../avr/lib/avr6/libm.a(mulsf3.o)
                                                  /ICESX/workSpaceC/SmartCarPark/product/code/frontend/dev/SmartCarParkFront-Lib/ATMEGA_LIB/libSmartCarParkFront-Lib.a(Print.o)
__mulsf3_pse                                      /TOOLS/software/arduino-1.6.5/hardware/tools/avr/bin/../lib/gcc/avr/4.8.1/../../../../avr/lib/avr6/libm.a(mulsf3x.o)
__mulsf3x                                         /TOOLS/software/arduino-1.6.5/hardware/tools/avr/bin/../lib/gcc/avr/4.8.1/../../../../avr/lib/avr6/libm.a(mulsf3x.o)
                                                  /TOOLS/software/arduino-1.6.5/hardware/tools/avr/bin/../lib/gcc/avr/4.8.1/../../../../avr/lib/avr6/libm.a(mulsf3.o)
__muluhisi3                                       /TOOLS/software/arduino-1.6.5/hardware/tools/avr/bin/../lib/gcc/avr/4.8.1/avr6/libgcc.a(_muluhisi3.o)
                                                  /ICESX/workSpaceC/SmartCarPark/product/code/frontend/dev/SmartCarParkFront-Lib/ATMEGA_LIB/libSmartCarParkFront-Lib.a(SdVolume.o)
                                                  /ICESX/workSpaceC/SmartCarPark/product/code/frontend/dev/SmartCarParkFront-Lib-Mine/ATMEGA_LIB/libSmartCarParkFront-Lib-Mine.a(SdCard.o)
__negsi2                                          /TOOLS/software/arduino-1.6.5/hardware/tools/avr/bin/../lib/gcc/avr/4.8.1/avr6/libgcc.a(_negsi2.o)
                                                  /TOOLS/software/arduino-1.6.5/hardware/tools/avr/bin/../lib/gcc/avr/4.8.1/avr6/libgcc.a(_divmodsi4.o)
__nesf2                                           /TOOLS/software/arduino-1.6.5/hardware/tools/avr/bin/../lib/gcc/avr/4.8.1/../../../../avr/lib/avr6/libm.a(cmpsf2.o)
__stack                                           /TOOLS/software/arduino-1.6.5/hardware/tools/avr/bin/../lib/gcc/avr/4.8.1/../../../../avr/lib/avr6/crtm2560.o
__subsf3                                          /TOOLS/software/arduino-1.6.5/hardware/tools/avr/bin/../lib/gcc/avr/4.8.1/../../../../avr/lib/avr6/libm.a(addsf3.o)
                                                  /ICESX/workSpaceC/SmartCarPark/product/code/frontend/dev/SmartCarParkFront-Lib/ATMEGA_LIB/libSmartCarParkFront-Lib.a(Print.o)
__tablejump2__                                    /TOOLS/software/arduino-1.6.5/hardware/tools/avr/bin/../lib/gcc/avr/4.8.1/avr6/libgcc.a(_tablejump.o)
                                                  /ICESX/workSpaceC/SmartCarPark/product/code/frontend/dev/SmartCarParkFront-Lib/ATMEGA_LIB/libSmartCarParkFront-Lib.a(SPI.o)
                                                  /ICESX/workSpaceC/SmartCarPark/product/code/frontend/dev/SmartCarParkFront-Lib/ATMEGA_LIB/libSmartCarParkFront-Lib.a(wiring_digital.o)
__tablejump__                                     /TOOLS/software/arduino-1.6.5/hardware/tools/avr/bin/../lib/gcc/avr/4.8.1/avr6/libgcc.a(_tablejump.o)
__tablejump_elpm__                                /TOOLS/software/arduino-1.6.5/hardware/tools/avr/bin/../lib/gcc/avr/4.8.1/avr6/libgcc.a(_tablejump_elpm.o)
                                                  /TOOLS/software/arduino-1.6.5/hardware/tools/avr/bin/../lib/gcc/avr/4.8.1/avr6/libgcc.a(_dtors.o)
                                                  /TOOLS/software/arduino-1.6.5/hardware/tools/avr/bin/../lib/gcc/avr/4.8.1/avr6/libgcc.a(_ctors.o)
__udivmodhi4                                      /TOOLS/software/arduino-1.6.5/hardware/tools/avr/bin/../lib/gcc/avr/4.8.1/avr6/libgcc.a(_udivmodhi4.o)
                                                  /TOOLS/software/arduino-1.6.5/hardware/tools/avr/bin/../lib/gcc/avr/4.8.1/avr6/libgcc.a(_divmodhi4.o)
__udivmodqi4                                      /TOOLS/software/arduino-1.6.5/hardware/tools/avr/bin/../lib/gcc/avr/4.8.1/avr6/libgcc.a(_udivmodqi4.o)
                                                  /ICESX/workSpaceC/SmartCarPark/product/code/frontend/dev/SmartCarParkFront-Lib/ATMEGA_LIB/libSmartCarParkFront-Lib.a(SdFile.o)
__udivmodsi4                                      /TOOLS/software/arduino-1.6.5/hardware/tools/avr/bin/../lib/gcc/avr/4.8.1/avr6/libgcc.a(_udivmodsi4.o)
                                                  /TOOLS/software/arduino-1.6.5/hardware/tools/avr/bin/../lib/gcc/avr/4.8.1/avr6/libgcc.a(_divmodsi4.o)
                                                  /ICESX/workSpaceC/SmartCarPark/product/code/frontend/dev/SmartCarParkFront-Lib/ATMEGA_LIB/libSmartCarParkFront-Lib.a(Print.o)
                                                  /ICESX/workSpaceC/SmartCarPark/product/code/frontend/dev/SmartCarParkFront-Lib/ATMEGA_LIB/libSmartCarParkFront-Lib.a(HardwareSerial.o)
__umulhisi3                                       /TOOLS/software/arduino-1.6.5/hardware/tools/avr/bin/../lib/gcc/avr/4.8.1/avr6/libgcc.a(_umulhisi3.o)
                                                  /TOOLS/software/arduino-1.6.5/hardware/tools/avr/bin/../lib/gcc/avr/4.8.1/avr6/libgcc.a(_muluhisi3.o)
__unordsf2                                        /TOOLS/software/arduino-1.6.5/hardware/tools/avr/bin/../lib/gcc/avr/4.8.1/../../../../avr/lib/avr6/libm.a(unordsf2.o)
                                                  /ICESX/workSpaceC/SmartCarPark/product/code/frontend/dev/SmartCarParkFront-Lib/ATMEGA_LIB/libSmartCarParkFront-Lib.a(Print.o)
__vector_1                                        /TOOLS/software/arduino-1.6.5/hardware/tools/avr/bin/../lib/gcc/avr/4.8.1/../../../../avr/lib/avr6/crtm2560.o
__vector_10                                       /ICESX/workSpaceC/SmartCarPark/product/code/frontend/dev/SmartCarParkFront-Lib/ATMEGA_LIB/libSmartCarParkFront-Lib.a(SoftwareSerial.o)
                                                  /TOOLS/software/arduino-1.6.5/hardware/tools/avr/bin/../lib/gcc/avr/4.8.1/../../../../avr/lib/avr6/crtm2560.o
__vector_11                                       /ICESX/workSpaceC/SmartCarPark/product/code/frontend/dev/SmartCarParkFront-Lib/ATMEGA_LIB/libSmartCarParkFront-Lib.a(SoftwareSerial.o)
                                                  /TOOLS/software/arduino-1.6.5/hardware/tools/avr/bin/../lib/gcc/avr/4.8.1/../../../../avr/lib/avr6/crtm2560.o
__vector_12                                       /TOOLS/software/arduino-1.6.5/hardware/tools/avr/bin/../lib/gcc/avr/4.8.1/../../../../avr/lib/avr6/crtm2560.o
__vector_13                                       /TOOLS/software/arduino-1.6.5/hardware/tools/avr/bin/../lib/gcc/avr/4.8.1/../../../../avr/lib/avr6/crtm2560.o
__vector_14                                       /TOOLS/software/arduino-1.6.5/hardware/tools/avr/bin/../lib/gcc/avr/4.8.1/../../../../avr/lib/avr6/crtm2560.o
__vector_15                                       /TOOLS/software/arduino-1.6.5/hardware/tools/avr/bin/../lib/gcc/avr/4.8.1/../../../../avr/lib/avr6/crtm2560.o
__vector_16                                       /TOOLS/software/arduino-1.6.5/hardware/tools/avr/bin/../lib/gcc/avr/4.8.1/../../../../avr/lib/avr6/crtm2560.o
__vector_17                                       /TOOLS/software/arduino-1.6.5/hardware/tools/avr/bin/../lib/gcc/avr/4.8.1/../../../../avr/lib/avr6/crtm2560.o
__vector_18                                       /TOOLS/software/arduino-1.6.5/hardware/tools/avr/bin/../lib/gcc/avr/4.8.1/../../../../avr/lib/avr6/crtm2560.o
__vector_19                                       /TOOLS/software/arduino-1.6.5/hardware/tools/avr/bin/../lib/gcc/avr/4.8.1/../../../../avr/lib/avr6/crtm2560.o
__vector_2                                        /TOOLS/software/arduino-1.6.5/hardware/tools/avr/bin/../lib/gcc/avr/4.8.1/../../../../avr/lib/avr6/crtm2560.o
__vector_20                                       /TOOLS/software/arduino-1.6.5/hardware/tools/avr/bin/../lib/gcc/avr/4.8.1/../../../../avr/lib/avr6/crtm2560.o
__vector_21                                       /TOOLS/software/arduino-1.6.5/hardware/tools/avr/bin/../lib/gcc/avr/4.8.1/../../../../avr/lib/avr6/crtm2560.o
__vector_22                                       /TOOLS/software/arduino-1.6.5/hardware/tools/avr/bin/../lib/gcc/avr/4.8.1/../../../../avr/lib/avr6/crtm2560.o
__vector_23                                       /ICESX/workSpaceC/SmartCarPark/product/code/frontend/dev/SmartCarParkFront-Lib/ATMEGA_LIB/libSmartCarParkFront-Lib.a(wiring.o)
                                                  /TOOLS/software/arduino-1.6.5/hardware/tools/avr/bin/../lib/gcc/avr/4.8.1/../../../../avr/lib/avr6/crtm2560.o
__vector_24                                       /TOOLS/software/arduino-1.6.5/hardware/tools/avr/bin/../lib/gcc/avr/4.8.1/../../../../avr/lib/avr6/crtm2560.o
__vector_25                                       /ICESX/workSpaceC/SmartCarPark/product/code/frontend/dev/SmartCarParkFront-Lib/ATMEGA_LIB/libSmartCarParkFront-Lib.a(HardwareSerial0.o)
                                                  /TOOLS/software/arduino-1.6.5/hardware/tools/avr/bin/../lib/gcc/avr/4.8.1/../../../../avr/lib/avr6/crtm2560.o
__vector_26                                       /ICESX/workSpaceC/SmartCarPark/product/code/frontend/dev/SmartCarParkFront-Lib/ATMEGA_LIB/libSmartCarParkFront-Lib.a(HardwareSerial0.o)
                                                  /TOOLS/software/arduino-1.6.5/hardware/tools/avr/bin/../lib/gcc/avr/4.8.1/../../../../avr/lib/avr6/crtm2560.o
__vector_27                                       /TOOLS/software/arduino-1.6.5/hardware/tools/avr/bin/../lib/gcc/avr/4.8.1/../../../../avr/lib/avr6/crtm2560.o
__vector_28                                       /TOOLS/software/arduino-1.6.5/hardware/tools/avr/bin/../lib/gcc/avr/4.8.1/../../../../avr/lib/avr6/crtm2560.o
__vector_29                                       /TOOLS/software/arduino-1.6.5/hardware/tools/avr/bin/../lib/gcc/avr/4.8.1/../../../../avr/lib/avr6/crtm2560.o
__vector_3                                        /TOOLS/software/arduino-1.6.5/hardware/tools/avr/bin/../lib/gcc/avr/4.8.1/../../../../avr/lib/avr6/crtm2560.o
__vector_30                                       /TOOLS/software/arduino-1.6.5/hardware/tools/avr/bin/../lib/gcc/avr/4.8.1/../../../../avr/lib/avr6/crtm2560.o
__vector_31                                       /TOOLS/software/arduino-1.6.5/hardware/tools/avr/bin/../lib/gcc/avr/4.8.1/../../../../avr/lib/avr6/crtm2560.o
__vector_32                                       /TOOLS/software/arduino-1.6.5/hardware/tools/avr/bin/../lib/gcc/avr/4.8.1/../../../../avr/lib/avr6/crtm2560.o
__vector_33                                       /TOOLS/software/arduino-1.6.5/hardware/tools/avr/bin/../lib/gcc/avr/4.8.1/../../../../avr/lib/avr6/crtm2560.o
__vector_34                                       /TOOLS/software/arduino-1.6.5/hardware/tools/avr/bin/../lib/gcc/avr/4.8.1/../../../../avr/lib/avr6/crtm2560.o
__vector_35                                       /TOOLS/software/arduino-1.6.5/hardware/tools/avr/bin/../lib/gcc/avr/4.8.1/../../../../avr/lib/avr6/crtm2560.o
__vector_36                                       /TOOLS/software/arduino-1.6.5/hardware/tools/avr/bin/../lib/gcc/avr/4.8.1/../../../../avr/lib/avr6/crtm2560.o
__vector_37                                       /TOOLS/software/arduino-1.6.5/hardware/tools/avr/bin/../lib/gcc/avr/4.8.1/../../../../avr/lib/avr6/crtm2560.o
__vector_38                                       /TOOLS/software/arduino-1.6.5/hardware/tools/avr/bin/../lib/gcc/avr/4.8.1/../../../../avr/lib/avr6/crtm2560.o
__vector_39                                       /TOOLS/software/arduino-1.6.5/hardware/tools/avr/bin/../lib/gcc/avr/4.8.1/../../../../avr/lib/avr6/crtm2560.o
__vector_4                                        /TOOLS/software/arduino-1.6.5/hardware/tools/avr/bin/../lib/gcc/avr/4.8.1/../../../../avr/lib/avr6/crtm2560.o
__vector_40                                       /TOOLS/software/arduino-1.6.5/hardware/tools/avr/bin/../lib/gcc/avr/4.8.1/../../../../avr/lib/avr6/crtm2560.o
__vector_41                                       /TOOLS/software/arduino-1.6.5/hardware/tools/avr/bin/../lib/gcc/avr/4.8.1/../../../../avr/lib/avr6/crtm2560.o
__vector_42                                       /TOOLS/software/arduino-1.6.5/hardware/tools/avr/bin/../lib/gcc/avr/4.8.1/../../../../avr/lib/avr6/crtm2560.o
__vector_43                                       /TOOLS/software/arduino-1.6.5/hardware/tools/avr/bin/../lib/gcc/avr/4.8.1/../../../../avr/lib/avr6/crtm2560.o
__vector_44                                       /TOOLS/software/arduino-1.6.5/hardware/tools/avr/bin/../lib/gcc/avr/4.8.1/../../../../avr/lib/avr6/crtm2560.o
__vector_45                                       /TOOLS/software/arduino-1.6.5/hardware/tools/avr/bin/../lib/gcc/avr/4.8.1/../../../../avr/lib/avr6/crtm2560.o
__vector_46                                       /TOOLS/software/arduino-1.6.5/hardware/tools/avr/bin/../lib/gcc/avr/4.8.1/../../../../avr/lib/avr6/crtm2560.o
__vector_47                                       /TOOLS/software/arduino-1.6.5/hardware/tools/avr/bin/../lib/gcc/avr/4.8.1/../../../../avr/lib/avr6/crtm2560.o
__vector_48                                       /TOOLS/software/arduino-1.6.5/hardware/tools/avr/bin/../lib/gcc/avr/4.8.1/../../../../avr/lib/avr6/crtm2560.o
__vector_49                                       /TOOLS/software/arduino-1.6.5/hardware/tools/avr/bin/../lib/gcc/avr/4.8.1/../../../../avr/lib/avr6/crtm2560.o
__vector_5                                        /TOOLS/software/arduino-1.6.5/hardware/tools/avr/bin/../lib/gcc/avr/4.8.1/../../../../avr/lib/avr6/crtm2560.o
__vector_50                                       /TOOLS/software/arduino-1.6.5/hardware/tools/avr/bin/../lib/gcc/avr/4.8.1/../../../../avr/lib/avr6/crtm2560.o
__vector_51                                       /TOOLS/software/arduino-1.6.5/hardware/tools/avr/bin/../lib/gcc/avr/4.8.1/../../../../avr/lib/avr6/crtm2560.o
__vector_52                                       /TOOLS/software/arduino-1.6.5/hardware/tools/avr/bin/../lib/gcc/avr/4.8.1/../../../../avr/lib/avr6/crtm2560.o
__vector_53                                       /TOOLS/software/arduino-1.6.5/hardware/tools/avr/bin/../lib/gcc/avr/4.8.1/../../../../avr/lib/avr6/crtm2560.o
__vector_54                                       /TOOLS/software/arduino-1.6.5/hardware/tools/avr/bin/../lib/gcc/avr/4.8.1/../../../../avr/lib/avr6/crtm2560.o
__vector_55                                       /TOOLS/software/arduino-1.6.5/hardware/tools/avr/bin/../lib/gcc/avr/4.8.1/../../../../avr/lib/avr6/crtm2560.o
__vector_56                                       /TOOLS/software/arduino-1.6.5/hardware/tools/avr/bin/../lib/gcc/avr/4.8.1/../../../../avr/lib/avr6/crtm2560.o
__vector_6                                        /TOOLS/software/arduino-1.6.5/hardware/tools/avr/bin/../lib/gcc/avr/4.8.1/../../../../avr/lib/avr6/crtm2560.o
__vector_7                                        /TOOLS/software/arduino-1.6.5/hardware/tools/avr/bin/../lib/gcc/avr/4.8.1/../../../../avr/lib/avr6/crtm2560.o
__vector_8                                        /TOOLS/software/arduino-1.6.5/hardware/tools/avr/bin/../lib/gcc/avr/4.8.1/../../../../avr/lib/avr6/crtm2560.o
__vector_9                                        /ICESX/workSpaceC/SmartCarPark/product/code/frontend/dev/SmartCarParkFront-Lib/ATMEGA_LIB/libSmartCarParkFront-Lib.a(SoftwareSerial.o)
                                                  /TOOLS/software/arduino-1.6.5/hardware/tools/avr/bin/../lib/gcc/avr/4.8.1/../../../../avr/lib/avr6/crtm2560.o
__vector_default                                  /TOOLS/software/arduino-1.6.5/hardware/tools/avr/bin/../lib/gcc/avr/4.8.1/../../../../avr/lib/avr6/crtm2560.o
__vectors                                         /TOOLS/software/arduino-1.6.5/hardware/tools/avr/bin/../lib/gcc/avr/4.8.1/../../../../avr/lib/avr6/crtm2560.o
_div                                              /TOOLS/software/arduino-1.6.5/hardware/tools/avr/bin/../lib/gcc/avr/4.8.1/avr6/libgcc.a(_divmodhi4.o)
_exit                                             /TOOLS/software/arduino-1.6.5/hardware/tools/avr/bin/../lib/gcc/avr/4.8.1/avr6/libgcc.a(_exit.o)
                                                  /TOOLS/software/arduino-1.6.5/hardware/tools/avr/bin/../lib/gcc/avr/4.8.1/../../../../avr/lib/avr6/libc.a(abort.o)
abort                                             /TOOLS/software/arduino-1.6.5/hardware/tools/avr/bin/../lib/gcc/avr/4.8.1/../../../../avr/lib/avr6/libc.a(abort.o)
                                                  /ICESX/workSpaceC/SmartCarPark/product/code/frontend/dev/SmartCarParkFront-Lib/ATMEGA_LIB/libSmartCarParkFront-Lib.a(abi.o)
atexit                                            /ICESX/workSpaceC/SmartCarPark/product/code/frontend/dev/SmartCarParkFront-Lib/ATMEGA_LIB/libSmartCarParkFront-Lib.a(main.o)
delay                                             /ICESX/workSpaceC/SmartCarPark/product/code/frontend/dev/SmartCarParkFront-Lib/ATMEGA_LIB/libSmartCarParkFront-Lib.a(wiring.o)
                                                  ./src/SmartCarPark.o
delayMicroseconds                                 /ICESX/workSpaceC/SmartCarPark/product/code/frontend/dev/SmartCarParkFront-Lib/ATMEGA_LIB/libSmartCarParkFront-Lib.a(wiring.o)
digitalRead                                       /ICESX/workSpaceC/SmartCarPark/product/code/frontend/dev/SmartCarParkFront-Lib/ATMEGA_LIB/libSmartCarParkFront-Lib.a(wiring_digital.o)
digitalWrite                                      /ICESX/workSpaceC/SmartCarPark/product/code/frontend/dev/SmartCarParkFront-Lib/ATMEGA_LIB/libSmartCarParkFront-Lib.a(wiring_digital.o)
                                                  /ICESX/workSpaceC/SmartCarPark/product/code/frontend/dev/SmartCarParkFront-Lib/ATMEGA_LIB/libSmartCarParkFront-Lib.a(SPI.o)
                                                  /ICESX/workSpaceC/SmartCarPark/product/code/frontend/dev/SmartCarParkFront-Lib/ATMEGA_LIB/libSmartCarParkFront-Lib.a(Sd2Card.o)
                                                  /ICESX/workSpaceC/SmartCarPark/product/code/frontend/dev/SmartCarParkFront-Lib/ATMEGA_LIB/libSmartCarParkFront-Lib.a(SoftwareSerial.o)
                                                  ./src/SmartCarPark.o
digital_pin_to_bit_mask_PGM                       /ICESX/workSpaceC/SmartCarPark/product/code/frontend/dev/SmartCarParkFront-Lib/ATMEGA_LIB/libSmartCarParkFront-Lib.a(wiring_digital.o)
                                                  /ICESX/workSpaceC/SmartCarPark/product/code/frontend/dev/SmartCarParkFront-Lib/ATMEGA_LIB/libSmartCarParkFront-Lib.a(SPI.o)
                                                  /ICESX/workSpaceC/SmartCarPark/product/code/frontend/dev/SmartCarParkFront-Lib/ATMEGA_LIB/libSmartCarParkFront-Lib.a(SoftwareSerial.o)
digital_pin_to_port_PGM                           /ICESX/workSpaceC/SmartCarPark/product/code/frontend/dev/SmartCarParkFront-Lib/ATMEGA_LIB/libSmartCarParkFront-Lib.a(wiring_digital.o)
                                                  /ICESX/workSpaceC/SmartCarPark/product/code/frontend/dev/SmartCarParkFront-Lib/ATMEGA_LIB/libSmartCarParkFront-Lib.a(SPI.o)
                                                  /ICESX/workSpaceC/SmartCarPark/product/code/frontend/dev/SmartCarParkFront-Lib/ATMEGA_LIB/libSmartCarParkFront-Lib.a(SoftwareSerial.o)
digital_pin_to_timer_PGM                          /ICESX/workSpaceC/SmartCarPark/product/code/frontend/dev/SmartCarParkFront-Lib/ATMEGA_LIB/libSmartCarParkFront-Lib.a(wiring_digital.o)
exit                                              /TOOLS/software/arduino-1.6.5/hardware/tools/avr/bin/../lib/gcc/avr/4.8.1/avr6/libgcc.a(_exit.o)
                                                  /TOOLS/software/arduino-1.6.5/hardware/tools/avr/bin/../lib/gcc/avr/4.8.1/../../../../avr/lib/avr6/crtm2560.o
free                                              /TOOLS/software/arduino-1.6.5/hardware/tools/avr/bin/../lib/gcc/avr/4.8.1/../../../../avr/lib/avr6/libc.a(malloc.o)
                                                  /ICESX/workSpaceC/SmartCarPark/product/code/frontend/dev/SmartCarParkFront-Lib/ATMEGA_LIB/libSmartCarParkFront-Lib.a(File.o)
init                                              /ICESX/workSpaceC/SmartCarPark/product/code/frontend/dev/SmartCarParkFront-Lib/ATMEGA_LIB/libSmartCarParkFront-Lib.a(wiring.o)
                                                  /ICESX/workSpaceC/SmartCarPark/product/code/frontend/dev/SmartCarParkFront-Lib/ATMEGA_LIB/libSmartCarParkFront-Lib.a(main.o)
initVariant                                       /ICESX/workSpaceC/SmartCarPark/product/code/frontend/dev/SmartCarParkFront-Lib/ATMEGA_LIB/libSmartCarParkFront-Lib.a(main.o)
loop                                              ./src/SmartCarPark.o
                                                  /ICESX/workSpaceC/SmartCarPark/product/code/frontend/dev/SmartCarParkFront-Lib/ATMEGA_LIB/libSmartCarParkFront-Lib.a(main.o)
main                                              /ICESX/workSpaceC/SmartCarPark/product/code/frontend/dev/SmartCarParkFront-Lib/ATMEGA_LIB/libSmartCarParkFront-Lib.a(main.o)
                                                  /TOOLS/software/arduino-1.6.5/hardware/tools/avr/bin/../lib/gcc/avr/4.8.1/../../../../avr/lib/avr6/crtm2560.o
malloc                                            /TOOLS/software/arduino-1.6.5/hardware/tools/avr/bin/../lib/gcc/avr/4.8.1/../../../../avr/lib/avr6/libc.a(malloc.o)
                                                  /ICESX/workSpaceC/SmartCarPark/product/code/frontend/dev/SmartCarParkFront-Lib/ATMEGA_LIB/libSmartCarParkFront-Lib.a(File.o)
memcmp                                            /TOOLS/software/arduino-1.6.5/hardware/tools/avr/bin/../lib/gcc/avr/4.8.1/../../../../avr/lib/avr6/libc.a(memcmp.o)
                                                  /ICESX/workSpaceC/SmartCarPark/product/code/frontend/dev/SmartCarParkFront-Lib/ATMEGA_LIB/libSmartCarParkFront-Lib.a(SdFile.o)
                                                  /ICESX/workSpaceC/SmartCarPark/product/code/frontend/dev/SmartCarParkFront-Lib/ATMEGA_LIB/libSmartCarParkFront-Lib.a(IPAddress.o)
micros                                            /ICESX/workSpaceC/SmartCarPark/product/code/frontend/dev/SmartCarParkFront-Lib/ATMEGA_LIB/libSmartCarParkFront-Lib.a(wiring.o)
millis                                            /ICESX/workSpaceC/SmartCarPark/product/code/frontend/dev/SmartCarParkFront-Lib/ATMEGA_LIB/libSmartCarParkFront-Lib.a(wiring.o)
                                                  /ICESX/workSpaceC/SmartCarPark/product/code/frontend/dev/SmartCarParkFront-Lib/ATMEGA_LIB/libSmartCarParkFront-Lib.a(Sd2Card.o)
pinMode                                           /ICESX/workSpaceC/SmartCarPark/product/code/frontend/dev/SmartCarParkFront-Lib/ATMEGA_LIB/libSmartCarParkFront-Lib.a(wiring_digital.o)
                                                  /ICESX/workSpaceC/SmartCarPark/product/code/frontend/dev/SmartCarParkFront-Lib/ATMEGA_LIB/libSmartCarParkFront-Lib.a(SPI.o)
                                                  /ICESX/workSpaceC/SmartCarPark/product/code/frontend/dev/SmartCarParkFront-Lib/ATMEGA_LIB/libSmartCarParkFront-Lib.a(Sd2Card.o)
                                                  /ICESX/workSpaceC/SmartCarPark/product/code/frontend/dev/SmartCarParkFront-Lib/ATMEGA_LIB/libSmartCarParkFront-Lib.a(SoftwareSerial.o)
                                                  /ICESX/workSpaceC/SmartCarPark/product/code/frontend/dev/SmartCarParkFront-Lib-Mine/ATMEGA_LIB/libSmartCarParkFront-Lib-Mine.a(SdCard.o)
                                                  ./src/SmartCarPark.o
port_to_input_PGM                                 /ICESX/workSpaceC/SmartCarPark/product/code/frontend/dev/SmartCarParkFront-Lib/ATMEGA_LIB/libSmartCarParkFront-Lib.a(wiring_digital.o)
                                                  /ICESX/workSpaceC/SmartCarPark/product/code/frontend/dev/SmartCarParkFront-Lib/ATMEGA_LIB/libSmartCarParkFront-Lib.a(SoftwareSerial.o)
port_to_mode_PGM                                  /ICESX/workSpaceC/SmartCarPark/product/code/frontend/dev/SmartCarParkFront-Lib/ATMEGA_LIB/libSmartCarParkFront-Lib.a(wiring_digital.o)
                                                  /ICESX/workSpaceC/SmartCarPark/product/code/frontend/dev/SmartCarParkFront-Lib/ATMEGA_LIB/libSmartCarParkFront-Lib.a(SPI.o)
port_to_output_PGM                                /ICESX/workSpaceC/SmartCarPark/product/code/frontend/dev/SmartCarParkFront-Lib/ATMEGA_LIB/libSmartCarParkFront-Lib.a(wiring_digital.o)
                                                  /ICESX/workSpaceC/SmartCarPark/product/code/frontend/dev/SmartCarParkFront-Lib/ATMEGA_LIB/libSmartCarParkFront-Lib.a(SoftwareSerial.o)
sdcard                                            ./src/SmartCarPark.o
setup                                             ./src/SmartCarPark.o
                                                  /ICESX/workSpaceC/SmartCarPark/product/code/frontend/dev/SmartCarParkFront-Lib/ATMEGA_LIB/libSmartCarParkFront-Lib.a(main.o)
softSerial                                        ./src/SmartCarPark.o
strchr                                            /TOOLS/software/arduino-1.6.5/hardware/tools/avr/bin/../lib/gcc/avr/4.8.1/../../../../avr/lib/avr6/libc.a(strchr.o)
                                                  /ICESX/workSpaceC/SmartCarPark/product/code/frontend/dev/SmartCarParkFront-Lib/ATMEGA_LIB/libSmartCarParkFront-Lib.a(SD.o)
strncpy                                           /TOOLS/software/arduino-1.6.5/hardware/tools/avr/bin/../lib/gcc/avr/4.8.1/../../../../avr/lib/avr6/libc.a(strncpy.o)
                                                  /ICESX/workSpaceC/SmartCarPark/product/code/frontend/dev/SmartCarParkFront-Lib/ATMEGA_LIB/libSmartCarParkFront-Lib.a(SD.o)
                                                  /ICESX/workSpaceC/SmartCarPark/product/code/frontend/dev/SmartCarParkFront-Lib/ATMEGA_LIB/libSmartCarParkFront-Lib.a(File.o)
timer0_millis                                     /ICESX/workSpaceC/SmartCarPark/product/code/frontend/dev/SmartCarParkFront-Lib/ATMEGA_LIB/libSmartCarParkFront-Lib.a(wiring.o)
timer0_overflow_count                             /ICESX/workSpaceC/SmartCarPark/product/code/frontend/dev/SmartCarParkFront-Lib/ATMEGA_LIB/libSmartCarParkFront-Lib.a(wiring.o)
yield                                             /ICESX/workSpaceC/SmartCarPark/product/code/frontend/dev/SmartCarParkFront-Lib/ATMEGA_LIB/libSmartCarParkFront-Lib.a(hooks.o)
                                                  /ICESX/workSpaceC/SmartCarPark/product/code/frontend/dev/SmartCarParkFront-Lib/ATMEGA_LIB/libSmartCarParkFront-Lib.a(wiring.o)
